GAS LISTING C:\Users\ANDRLU~1\AppData\Local\Temp\ccpruXkc.s 			page 1


   1               		.file	"ff.cpp"
   2               	__SP_H__ = 0x3e
   3               	__SP_L__ = 0x3d
   4               	__SREG__ = 0x3f
   5               	__tmp_reg__ = 0
   6               	__zero_reg__ = 1
   7               		.text
   8               		.section	.text._ZL8ld_dwordPKh,"ax",@progbits
  10               	_ZL8ld_dwordPKh:
  11 0000 CF93      		push r28
  12 0002 DF93      		push r29
  13 0004 00D0      		rcall .
  14 0006 00D0      		rcall .
  15 0008 CDB7      		in r28,__SP_L__
  16 000a DEB7      		in r29,__SP_H__
  17               	/* prologue: function */
  18               	/* frame size = 4 */
  19               	/* stack size = 6 */
  20               	.L__stack_usage = 6
  21 000c E82F      		mov r30,r24
  22 000e F92F      		mov r31,r25
  23 0010 8381      		ldd r24,Z+3
  24 0012 90E0      		ldi r25,0
  25 0014 A0E0      		ldi r26,0
  26 0016 B0E0      		ldi r27,0
  27 0018 BA2F      		mov r27,r26
  28 001a A92F      		mov r26,r25
  29 001c 982F      		mov r25,r24
  30 001e 8827      		clr r24
  31 0020 2281      		ldd r18,Z+2
  32 0022 822B      		or r24,r18
  33 0024 BA2F      		mov r27,r26
  34 0026 A92F      		mov r26,r25
  35 0028 982F      		mov r25,r24
  36 002a 8827      		clr r24
  37 002c 2181      		ldd r18,Z+1
  38 002e 822B      		or r24,r18
  39 0030 BA2F      		mov r27,r26
  40 0032 A92F      		mov r26,r25
  41 0034 982F      		mov r25,r24
  42 0036 8827      		clr r24
  43 0038 2081      		ld r18,Z
  44 003a AC01      		movw r20,r24
  45 003c BD01      		movw r22,r26
  46 003e 422B      		or r20,r18
  47 0040 4983      		std Y+1,r20
  48 0042 5A83      		std Y+2,r21
  49 0044 6B83      		std Y+3,r22
  50 0046 7C83      		std Y+4,r23
  51 0048 CB01      		movw r24,r22
  52 004a BA01      		movw r22,r20
  53               	/* epilogue start */
  54 004c 0F90      		pop __tmp_reg__
  55 004e 0F90      		pop __tmp_reg__
  56 0050 0F90      		pop __tmp_reg__
  57 0052 0F90      		pop __tmp_reg__
  58 0054 DF91      		pop r29
GAS LISTING C:\Users\ANDRLU~1\AppData\Local\Temp\ccpruXkc.s 			page 2


  59 0056 CF91      		pop r28
  60 0058 0895      		ret
  62               		.section	.text._ZL7mem_cpyPvPKvj,"ax",@progbits
  64               	_ZL7mem_cpyPvPKvj:
  65               	/* prologue: function */
  66               	/* frame size = 0 */
  67               	/* stack size = 0 */
  68               	.L__stack_usage = 0
  69 0000 282F      		mov r18,r24
  70 0002 392F      		mov r19,r25
  71 0004 862F      		mov r24,r22
  72 0006 972F      		mov r25,r23
  73 0008 642F      		mov r22,r20
  74 000a 752F      		mov r23,r21
  75 000c 6115      		cp r22,__zero_reg__
  76 000e 7105      		cpc r23,__zero_reg__
  77 0010 01F0      		breq .L2
  78 0012 A901      		movw r20,r18
  79 0014 460F      		add r20,r22
  80 0016 571F      		adc r21,r23
  81               	.L4:
  82 0018 FC01      		movw r30,r24
  83 001a 6081      		ld r22,Z
  84 001c 0196      		adiw r24,1
  85 001e F901      		movw r30,r18
  86 0020 2F5F      		subi r18,-1
  87 0022 3F4F      		sbci r19,-1
  88 0024 6083      		st Z,r22
  89 0026 2417      		cp r18,r20
  90 0028 3507      		cpc r19,r21
  91 002a 01F4      		brne .L4
  92               	.L2:
  93               	/* epilogue start */
  94 002c 0895      		ret
  96               		.section	.text._ZL7mem_cmpPKvS0_j,"ax",@progbits
  98               	_ZL7mem_cmpPKvS0_j:
  99 0000 CF93      		push r28
 100 0002 DF93      		push r29
 101               	/* prologue: function */
 102               	/* frame size = 0 */
 103               	/* stack size = 2 */
 104               	.L__stack_usage = 2
 105 0004 C82F      		mov r28,r24
 106 0006 D92F      		mov r29,r25
 107 0008 A62F      		mov r26,r22
 108 000a B72F      		mov r27,r23
 109 000c 642F      		mov r22,r20
 110 000e 752F      		mov r23,r21
 111 0010 9E01      		movw r18,r28
 112               	.L8:
 113 0012 C901      		movw r24,r18
 114 0014 2F5F      		subi r18,-1
 115 0016 3F4F      		sbci r19,-1
 116 0018 FC01      		movw r30,r24
 117 001a 8081      		ld r24,Z
 118 001c FD01      		movw r30,r26
 119 001e 9081      		ld r25,Z
GAS LISTING C:\Users\ANDRLU~1\AppData\Local\Temp\ccpruXkc.s 			page 3


 120 0020 1196      		adiw r26,1
 121 0022 891B      		sub r24,r25
 122 0024 990B      		sbc r25,r25
 123 0026 A901      		movw r20,r18
 124 0028 461B      		sub r20,r22
 125 002a 570B      		sbc r21,r23
 126 002c 4C17      		cp r20,r28
 127 002e 5D07      		cpc r21,r29
 128 0030 01F0      		breq .L6
 129 0032 0097      		sbiw r24,0
 130 0034 01F0      		breq .L8
 131               	.L6:
 132               	/* epilogue start */
 133 0036 DF91      		pop r29
 134 0038 CF91      		pop r28
 135 003a 0895      		ret
 137               		.section	.text._ZL9clst2sectP5FATFSm,"ax",@progbits
 139               	_ZL9clst2sectP5FATFSm:
 140 0000 CF93      		push r28
 141 0002 DF93      		push r29
 142 0004 00D0      		rcall .
 143 0006 00D0      		rcall .
 144 0008 CDB7      		in r28,__SP_L__
 145 000a DEB7      		in r29,__SP_H__
 146               	/* prologue: function */
 147               	/* frame size = 4 */
 148               	/* stack size = 6 */
 149               	.L__stack_usage = 6
 150 000c E82F      		mov r30,r24
 151 000e F92F      		mov r31,r25
 152 0010 9A01      		movw r18,r20
 153 0012 AB01      		movw r20,r22
 154 0014 2250      		subi r18,2
 155 0016 3109      		sbc r19,__zero_reg__
 156 0018 4109      		sbc r20,__zero_reg__
 157 001a 5109      		sbc r21,__zero_reg__
 158 001c 8389      		ldd r24,Z+19
 159 001e 9489      		ldd r25,Z+20
 160 0020 A589      		ldd r26,Z+21
 161 0022 B689      		ldd r27,Z+22
 162 0024 0297      		sbiw r24,2
 163 0026 A109      		sbc r26,__zero_reg__
 164 0028 B109      		sbc r27,__zero_reg__
 165 002a 2817      		cp r18,r24
 166 002c 3907      		cpc r19,r25
 167 002e 4A07      		cpc r20,r26
 168 0030 5B07      		cpc r21,r27
 169 0032 00F4      		brsh .L12
 170 0034 A185      		ldd r26,Z+9
 171 0036 B285      		ldd r27,Z+10
 172 0038 0E94 0000 		call __muluhisi3
 173 003c 6983      		std Y+1,r22
 174 003e 7A83      		std Y+2,r23
 175 0040 8B83      		std Y+3,r24
 176 0042 9C83      		std Y+4,r25
 177 0044 87A1      		ldd r24,Z+39
 178 0046 90A5      		ldd r25,Z+40
GAS LISTING C:\Users\ANDRLU~1\AppData\Local\Temp\ccpruXkc.s 			page 4


 179 0048 A1A5      		ldd r26,Z+41
 180 004a B2A5      		ldd r27,Z+42
 181 004c 2981      		ldd r18,Y+1
 182 004e 3A81      		ldd r19,Y+2
 183 0050 4B81      		ldd r20,Y+3
 184 0052 5C81      		ldd r21,Y+4
 185 0054 280F      		add r18,r24
 186 0056 391F      		adc r19,r25
 187 0058 4A1F      		adc r20,r26
 188 005a 5B1F      		adc r21,r27
 189 005c 2983      		std Y+1,r18
 190 005e 3A83      		std Y+2,r19
 191 0060 4B83      		std Y+3,r20
 192 0062 5C83      		std Y+4,r21
 193               	.L10:
 194 0064 6981      		ldd r22,Y+1
 195 0066 7A81      		ldd r23,Y+2
 196 0068 8B81      		ldd r24,Y+3
 197 006a 9C81      		ldd r25,Y+4
 198               	/* epilogue start */
 199 006c 0F90      		pop __tmp_reg__
 200 006e 0F90      		pop __tmp_reg__
 201 0070 0F90      		pop __tmp_reg__
 202 0072 0F90      		pop __tmp_reg__
 203 0074 DF91      		pop r29
 204 0076 CF91      		pop r28
 205 0078 0895      		ret
 206               	.L12:
 207 007a 1982      		std Y+1,__zero_reg__
 208 007c 1A82      		std Y+2,__zero_reg__
 209 007e 1B82      		std Y+3,__zero_reg__
 210 0080 1C82      		std Y+4,__zero_reg__
 211 0082 00C0      		rjmp .L10
 213               		.section	.text._ZL12get_ldnumberPPKc,"ax",@progbits
 215               	_ZL12get_ldnumberPPKc:
 216 0000 CF93      		push r28
 217 0002 DF93      		push r29
 218               	/* prologue: function */
 219               	/* frame size = 0 */
 220               	/* stack size = 2 */
 221               	.L__stack_usage = 2
 222 0004 C82F      		mov r28,r24
 223 0006 D92F      		mov r29,r25
 224 0008 A881      		ld r26,Y
 225 000a B981      		ldd r27,Y+1
 226 000c 1097      		sbiw r26,0
 227 000e 01F0      		breq .L19
 228 0010 9C91      		ld r25,X
 229 0012 292F      		mov r18,r25
 230 0014 092E      		mov __tmp_reg__,r25
 231 0016 000C      		lsl r0
 232 0018 330B      		sbc r19,r19
 233 001a FD01      		movw r30,r26
 234 001c 892F      		mov r24,r25
 235 001e 2132      		cpi r18,33
 236 0020 3105      		cpc r19,__zero_reg__
 237 0022 00F0      		brlo .L16
GAS LISTING C:\Users\ANDRLU~1\AppData\Local\Temp\ccpruXkc.s 			page 5


 238               	.L15:
 239 0024 8A33      		cpi r24,lo8(58)
 240 0026 01F0      		breq .L18
 241 0028 3196      		adiw r30,1
 242 002a 8081      		ld r24,Z
 243 002c 282F      		mov r18,r24
 244 002e 082E      		mov __tmp_reg__,r24
 245 0030 000C      		lsl r0
 246 0032 330B      		sbc r19,r19
 247 0034 2132      		cpi r18,33
 248 0036 3105      		cpc r19,__zero_reg__
 249 0038 00F4      		brsh .L15
 250               	.L16:
 251 003a 8A33      		cpi r24,lo8(58)
 252 003c 01F0      		breq .L18
 253 003e 80E0      		ldi r24,0
 254 0040 90E0      		ldi r25,0
 255               	.L13:
 256               	/* epilogue start */
 257 0042 DF91      		pop r29
 258 0044 CF91      		pop r28
 259 0046 0895      		ret
 260               	.L18:
 261 0048 1196      		adiw r26,1
 262 004a 9033      		cpi r25,lo8(48)
 263 004c 01F4      		brne .L22
 264 004e EA17      		cp r30,r26
 265 0050 FB07      		cpc r31,r27
 266 0052 01F4      		brne .L23
 267 0054 3196      		adiw r30,1
 268 0056 F983      		std Y+1,r31
 269 0058 E883      		st Y,r30
 270 005a 80E0      		ldi r24,0
 271 005c 90E0      		ldi r25,0
 272 005e 00C0      		rjmp .L13
 273               	.L19:
 274 0060 8FEF      		ldi r24,lo8(-1)
 275 0062 9FEF      		ldi r25,lo8(-1)
 276 0064 00C0      		rjmp .L13
 277               	.L22:
 278 0066 8FEF      		ldi r24,lo8(-1)
 279 0068 9FEF      		ldi r25,lo8(-1)
 280 006a 00C0      		rjmp .L13
 281               	.L23:
 282 006c 8FEF      		ldi r24,lo8(-1)
 283 006e 9FEF      		ldi r25,lo8(-1)
 284 0070 00C0      		rjmp .L13
 286               		.section	.text._ZL8validateP7FFOBJIDPP5FATFS,"ax",@progbits
 288               	_ZL8validateP7FFOBJIDPP5FATFS:
 289 0000 0F93      		push r16
 290 0002 1F93      		push r17
 291 0004 CF93      		push r28
 292 0006 DF93      		push r29
 293               	/* prologue: function */
 294               	/* frame size = 0 */
 295               	/* stack size = 4 */
 296               	.L__stack_usage = 4
GAS LISTING C:\Users\ANDRLU~1\AppData\Local\Temp\ccpruXkc.s 			page 6


 297 0008 C82F      		mov r28,r24
 298 000a D92F      		mov r29,r25
 299 000c 062F      		mov r16,r22
 300 000e 172F      		mov r17,r23
 301 0010 89E0      		ldi r24,lo8(9)
 302 0012 90E0      		ldi r25,0
 303 0014 2097      		sbiw r28,0
 304 0016 01F0      		breq .L25
 305 0018 E881      		ld r30,Y
 306 001a F981      		ldd r31,Y+1
 307 001c 3097      		sbiw r30,0
 308 001e 01F0      		breq .L27
 309 0020 8081      		ld r24,Z
 310 0022 8823      		tst r24
 311 0024 01F0      		breq .L28
 312 0026 2A81      		ldd r18,Y+2
 313 0028 3B81      		ldd r19,Y+3
 314 002a 8581      		ldd r24,Z+5
 315 002c 9681      		ldd r25,Z+6
 316 002e 2817      		cp r18,r24
 317 0030 3907      		cpc r19,r25
 318 0032 01F0      		breq .L31
 319 0034 89E0      		ldi r24,lo8(9)
 320 0036 90E0      		ldi r25,0
 321 0038 C0E0      		ldi r28,0
 322 003a D0E0      		ldi r29,0
 323               	.L25:
 324 003c F801      		movw r30,r16
 325 003e D183      		std Z+1,r29
 326 0040 C083      		st Z,r28
 327               	/* epilogue start */
 328 0042 DF91      		pop r29
 329 0044 CF91      		pop r28
 330 0046 1F91      		pop r17
 331 0048 0F91      		pop r16
 332 004a 0895      		ret
 333               	.L31:
 334 004c 8181      		ldd r24,Z+1
 335 004e 0E94 0000 		call disk_status
 336 0052 80FD      		sbrc r24,0
 337 0054 00C0      		rjmp .L30
 338 0056 0990      		ld __tmp_reg__,Y+
 339 0058 D881      		ld r29,Y
 340 005a C02D      		mov r28,__tmp_reg__
 341 005c 80E0      		ldi r24,0
 342 005e 90E0      		ldi r25,0
 343 0060 00C0      		rjmp .L25
 344               	.L27:
 345 0062 EF01      		movw r28,r30
 346 0064 89E0      		ldi r24,lo8(9)
 347 0066 90E0      		ldi r25,0
 348 0068 00C0      		rjmp .L25
 349               	.L28:
 350 006a 89E0      		ldi r24,lo8(9)
 351 006c 90E0      		ldi r25,0
 352 006e C0E0      		ldi r28,0
 353 0070 D0E0      		ldi r29,0
GAS LISTING C:\Users\ANDRLU~1\AppData\Local\Temp\ccpruXkc.s 			page 7


 354 0072 00C0      		rjmp .L25
 355               	.L30:
 356 0074 89E0      		ldi r24,lo8(9)
 357 0076 90E0      		ldi r25,0
 358 0078 C0E0      		ldi r28,0
 359 007a D0E0      		ldi r29,0
 360 007c 00C0      		rjmp .L25
 362               		.section	.text._ZL11sync_windowP5FATFS,"ax",@progbits
 364               	_ZL11sync_windowP5FATFS:
 365 0000 8F92      		push r8
 366 0002 9F92      		push r9
 367 0004 AF92      		push r10
 368 0006 BF92      		push r11
 369 0008 CF92      		push r12
 370 000a DF92      		push r13
 371 000c EF92      		push r14
 372 000e FF92      		push r15
 373 0010 0F93      		push r16
 374 0012 1F93      		push r17
 375 0014 CF93      		push r28
 376 0016 DF93      		push r29
 377               	/* prologue: function */
 378               	/* frame size = 0 */
 379               	/* stack size = 12 */
 380               	.L__stack_usage = 12
 381 0018 C82F      		mov r28,r24
 382 001a D92F      		mov r29,r25
 383 001c 8B81      		ldd r24,Y+3
 384 001e E12C      		mov r14,__zero_reg__
 385 0020 F12C      		mov r15,__zero_reg__
 386 0022 8111      		cpse r24,__zero_reg__
 387 0024 00C0      		rjmp .L36
 388               	.L32:
 389 0026 C701      		movw r24,r14
 390               	/* epilogue start */
 391 0028 DF91      		pop r29
 392 002a CF91      		pop r28
 393 002c 1F91      		pop r17
 394 002e 0F91      		pop r16
 395 0030 FF90      		pop r15
 396 0032 EF90      		pop r14
 397 0034 DF90      		pop r13
 398 0036 CF90      		pop r12
 399 0038 BF90      		pop r11
 400 003a AF90      		pop r10
 401 003c 9F90      		pop r9
 402 003e 8F90      		pop r8
 403 0040 0895      		ret
 404               	.L36:
 405 0042 6E01      		movw r12,r28
 406 0044 8FE2      		ldi r24,47
 407 0046 C80E      		add r12,r24
 408 0048 D11C      		adc r13,__zero_reg__
 409 004a 2BA5      		ldd r18,Y+43
 410 004c 3CA5      		ldd r19,Y+44
 411 004e 4DA5      		ldd r20,Y+45
 412 0050 5EA5      		ldd r21,Y+46
GAS LISTING C:\Users\ANDRLU~1\AppData\Local\Temp\ccpruXkc.s 			page 8


 413 0052 01E0      		ldi r16,lo8(1)
 414 0054 10E0      		ldi r17,0
 415 0056 B601      		movw r22,r12
 416 0058 8981      		ldd r24,Y+1
 417 005a 0E94 0000 		call disk_write
 418 005e E82E      		mov r14,r24
 419 0060 F92E      		mov r15,r25
 420 0062 E114      		cp r14,__zero_reg__
 421 0064 F104      		cpc r15,__zero_reg__
 422 0066 01F4      		brne .L35
 423 0068 1B82      		std Y+3,__zero_reg__
 424 006a 8BA5      		ldd r24,Y+43
 425 006c 9CA5      		ldd r25,Y+44
 426 006e ADA5      		ldd r26,Y+45
 427 0070 BEA5      		ldd r27,Y+46
 428 0072 4F89      		ldd r20,Y+23
 429 0074 588D      		ldd r21,Y+24
 430 0076 698D      		ldd r22,Y+25
 431 0078 7A8D      		ldd r23,Y+26
 432 007a 0F8D      		ldd r16,Y+31
 433 007c 18A1      		ldd r17,Y+32
 434 007e 29A1      		ldd r18,Y+33
 435 0080 3AA1      		ldd r19,Y+34
 436 0082 4C01      		movw r8,r24
 437 0084 5D01      		movw r10,r26
 438 0086 801A      		sub r8,r16
 439 0088 910A      		sbc r9,r17
 440 008a A20A      		sbc r10,r18
 441 008c B30A      		sbc r11,r19
 442 008e 8416      		cp r8,r20
 443 0090 9506      		cpc r9,r21
 444 0092 A606      		cpc r10,r22
 445 0094 B706      		cpc r11,r23
 446 0096 00F4      		brsh .L32
 447 0098 2A81      		ldd r18,Y+2
 448 009a 2230      		cpi r18,lo8(2)
 449 009c 01F4      		brne .L32
 450 009e 9A01      		movw r18,r20
 451 00a0 AB01      		movw r20,r22
 452 00a2 280F      		add r18,r24
 453 00a4 391F      		adc r19,r25
 454 00a6 4A1F      		adc r20,r26
 455 00a8 5B1F      		adc r21,r27
 456 00aa 01E0      		ldi r16,lo8(1)
 457 00ac 10E0      		ldi r17,0
 458 00ae B601      		movw r22,r12
 459 00b0 8981      		ldd r24,Y+1
 460 00b2 0E94 0000 		call disk_write
 461 00b6 00C0      		rjmp .L32
 462               	.L35:
 463 00b8 EE24      		clr r14
 464 00ba E394      		inc r14
 465 00bc F12C      		mov r15,__zero_reg__
 466 00be 00C0      		rjmp .L32
 468               		.section	.text._ZL11move_windowP5FATFSm,"ax",@progbits
 470               	_ZL11move_windowP5FATFSm:
 471 0000 CF92      		push r12
GAS LISTING C:\Users\ANDRLU~1\AppData\Local\Temp\ccpruXkc.s 			page 9


 472 0002 DF92      		push r13
 473 0004 EF92      		push r14
 474 0006 FF92      		push r15
 475 0008 0F93      		push r16
 476 000a 1F93      		push r17
 477 000c CF93      		push r28
 478 000e DF93      		push r29
 479               	/* prologue: function */
 480               	/* frame size = 0 */
 481               	/* stack size = 8 */
 482               	.L__stack_usage = 8
 483 0010 C82F      		mov r28,r24
 484 0012 D92F      		mov r29,r25
 485 0014 C42E      		mov r12,r20
 486 0016 D52E      		mov r13,r21
 487 0018 E62E      		mov r14,r22
 488 001a F72E      		mov r15,r23
 489 001c 8BA5      		ldd r24,Y+43
 490 001e 9CA5      		ldd r25,Y+44
 491 0020 ADA5      		ldd r26,Y+45
 492 0022 BEA5      		ldd r27,Y+46
 493 0024 8C15      		cp r24,r12
 494 0026 9D05      		cpc r25,r13
 495 0028 AE05      		cpc r26,r14
 496 002a BF05      		cpc r27,r15
 497 002c 01F4      		brne .L42
 498 002e 80E0      		ldi r24,0
 499 0030 90E0      		ldi r25,0
 500               	.L37:
 501               	/* epilogue start */
 502 0032 DF91      		pop r29
 503 0034 CF91      		pop r28
 504 0036 1F91      		pop r17
 505 0038 0F91      		pop r16
 506 003a FF90      		pop r15
 507 003c EF90      		pop r14
 508 003e DF90      		pop r13
 509 0040 CF90      		pop r12
 510 0042 0895      		ret
 511               	.L42:
 512 0044 CE01      		movw r24,r28
 513 0046 0E94 0000 		call _ZL11sync_windowP5FATFS
 514 004a 0097      		sbiw r24,0
 515 004c 01F4      		brne .L37
 516 004e 01E0      		ldi r16,lo8(1)
 517 0050 10E0      		ldi r17,0
 518 0052 A701      		movw r20,r14
 519 0054 9601      		movw r18,r12
 520 0056 BE01      		movw r22,r28
 521 0058 615D      		subi r22,-47
 522 005a 7F4F      		sbci r23,-1
 523 005c 8981      		ldd r24,Y+1
 524 005e 0E94 0000 		call disk_read
 525 0062 0097      		sbiw r24,0
 526 0064 01F0      		breq .L39
 527 0066 81E0      		ldi r24,lo8(1)
 528 0068 90E0      		ldi r25,0
GAS LISTING C:\Users\ANDRLU~1\AppData\Local\Temp\ccpruXkc.s 			page 10


 529 006a CC24      		clr r12
 530 006c CA94      		dec r12
 531 006e DC2C      		mov r13,r12
 532 0070 7601      		movw r14,r12
 533               	.L39:
 534 0072 CBA6      		std Y+43,r12
 535 0074 DCA6      		std Y+44,r13
 536 0076 EDA6      		std Y+45,r14
 537 0078 FEA6      		std Y+46,r15
 538 007a 00C0      		rjmp .L37
 540               		.section	.text._ZL7put_fatP5FATFSmm,"ax",@progbits
 542               	_ZL7put_fatP5FATFSmm:
 543 0000 2F92      		push r2
 544 0002 3F92      		push r3
 545 0004 4F92      		push r4
 546 0006 5F92      		push r5
 547 0008 6F92      		push r6
 548 000a 7F92      		push r7
 549 000c 8F92      		push r8
 550 000e 9F92      		push r9
 551 0010 AF92      		push r10
 552 0012 BF92      		push r11
 553 0014 CF92      		push r12
 554 0016 DF92      		push r13
 555 0018 EF92      		push r14
 556 001a FF92      		push r15
 557 001c 0F93      		push r16
 558 001e 1F93      		push r17
 559 0020 CF93      		push r28
 560 0022 DF93      		push r29
 561 0024 00D0      		rcall .
 562 0026 00D0      		rcall .
 563 0028 00D0      		rcall .
 564 002a CDB7      		in r28,__SP_L__
 565 002c DEB7      		in r29,__SP_H__
 566               	/* prologue: function */
 567               	/* frame size = 6 */
 568               	/* stack size = 24 */
 569               	.L__stack_usage = 24
 570 002e 8D83      		std Y+5,r24
 571 0030 9E83      		std Y+6,r25
 572 0032 442E      		mov r4,r20
 573 0034 552E      		mov r5,r21
 574 0036 662E      		mov r6,r22
 575 0038 772E      		mov r7,r23
 576 003a C02E      		mov r12,r16
 577 003c D12E      		mov r13,r17
 578 003e E22E      		mov r14,r18
 579 0040 F32E      		mov r15,r19
 580 0042 02E0      		ldi r16,lo8(2)
 581 0044 10E0      		ldi r17,0
 582 0046 32E0      		ldi r19,2
 583 0048 4316      		cp r4,r19
 584 004a 5104      		cpc r5,__zero_reg__
 585 004c 6104      		cpc r6,__zero_reg__
 586 004e 7104      		cpc r7,__zero_reg__
 587 0050 00F0      		brlo .L43
GAS LISTING C:\Users\ANDRLU~1\AppData\Local\Temp\ccpruXkc.s 			page 11


 588 0052 ED81      		ldd r30,Y+5
 589 0054 FE81      		ldd r31,Y+6
 590 0056 8389      		ldd r24,Z+19
 591 0058 9489      		ldd r25,Z+20
 592 005a A589      		ldd r26,Z+21
 593 005c B689      		ldd r27,Z+22
 594 005e 02E0      		ldi r16,lo8(2)
 595 0060 10E0      		ldi r17,0
 596 0062 4816      		cp r4,r24
 597 0064 5906      		cpc r5,r25
 598 0066 6A06      		cpc r6,r26
 599 0068 7B06      		cpc r7,r27
 600 006a 00F4      		brsh .L43
 601 006c 8081      		ld r24,Z
 602 006e 8230      		cpi r24,lo8(2)
 603 0070 01F4      		brne .+2
 604 0072 00C0      		rjmp .L45
 605 0074 8330      		cpi r24,lo8(3)
 606 0076 01F4      		brne .+2
 607 0078 00C0      		rjmp .L46
 608 007a 02E0      		ldi r16,lo8(2)
 609 007c 10E0      		ldi r17,0
 610 007e 8130      		cpi r24,lo8(1)
 611 0080 01F0      		breq .L58
 612               	.L43:
 613 0082 C801      		movw r24,r16
 614               	/* epilogue start */
 615 0084 0F90      		pop __tmp_reg__
 616 0086 0F90      		pop __tmp_reg__
 617 0088 0F90      		pop __tmp_reg__
 618 008a 0F90      		pop __tmp_reg__
 619 008c 0F90      		pop __tmp_reg__
 620 008e 0F90      		pop __tmp_reg__
 621 0090 DF91      		pop r29
 622 0092 CF91      		pop r28
 623 0094 1F91      		pop r17
 624 0096 0F91      		pop r16
 625 0098 FF90      		pop r15
 626 009a EF90      		pop r14
 627 009c DF90      		pop r13
 628 009e CF90      		pop r12
 629 00a0 BF90      		pop r11
 630 00a2 AF90      		pop r10
 631 00a4 9F90      		pop r9
 632 00a6 8F90      		pop r8
 633 00a8 7F90      		pop r7
 634 00aa 6F90      		pop r6
 635 00ac 5F90      		pop r5
 636 00ae 4F90      		pop r4
 637 00b0 3F90      		pop r3
 638 00b2 2F90      		pop r2
 639 00b4 0895      		ret
 640               	.L58:
 641 00b6 5201      		movw r10,r4
 642 00b8 B694      		lsr r11
 643 00ba A794      		ror r10
 644 00bc A40C      		add r10,r4
GAS LISTING C:\Users\ANDRLU~1\AppData\Local\Temp\ccpruXkc.s 			page 12


 645 00be B51C      		adc r11,r5
 646 00c0 C501      		movw r24,r10
 647 00c2 892F      		mov r24,r25
 648 00c4 9927      		clr r25
 649 00c6 8695      		lsr r24
 650 00c8 478D      		ldd r20,Z+31
 651 00ca 50A1      		ldd r21,Z+32
 652 00cc 61A1      		ldd r22,Z+33
 653 00ce 72A1      		ldd r23,Z+34
 654 00d0 480F      		add r20,r24
 655 00d2 591F      		adc r21,r25
 656 00d4 611D      		adc r22,__zero_reg__
 657 00d6 711D      		adc r23,__zero_reg__
 658 00d8 CF01      		movw r24,r30
 659 00da 0E94 0000 		call _ZL11move_windowP5FATFSm
 660 00de 082F      		mov r16,r24
 661 00e0 192F      		mov r17,r25
 662 00e2 0115      		cp r16,__zero_reg__
 663 00e4 1105      		cpc r17,__zero_reg__
 664 00e6 01F4      		brne .L43
 665 00e8 8D80      		ldd r8,Y+5
 666 00ea 9E80      		ldd r9,Y+6
 667 00ec FFE2      		ldi r31,47
 668 00ee 8F0E      		add r8,r31
 669 00f0 911C      		adc r9,__zero_reg__
 670 00f2 1501      		movw r2,r10
 671 00f4 3FEF      		ldi r19,-1
 672 00f6 231A      		sub r2,r19
 673 00f8 330A      		sbc r3,r19
 674 00fa F501      		movw r30,r10
 675 00fc F170      		andi r31,1
 676 00fe E80D      		add r30,r8
 677 0100 F91D      		adc r31,r9
 678 0102 40FE      		sbrs r4,0
 679 0104 00C0      		rjmp .L47
 680 0106 2081      		ld r18,Z
 681 0108 2F70      		andi r18,lo8(15)
 682 010a 30E1      		ldi r19,lo8(16)
 683 010c C39E      		mul r12,r19
 684 010e C001      		movw r24,r0
 685 0110 1124      		clr __zero_reg__
 686 0112 822B      		or r24,r18
 687 0114 8083      		st Z,r24
 688 0116 81E0      		ldi r24,lo8(1)
 689 0118 ED81      		ldd r30,Y+5
 690 011a FE81      		ldd r31,Y+6
 691 011c 8383      		std Z+3,r24
 692 011e 478D      		ldd r20,Z+31
 693 0120 50A1      		ldd r21,Z+32
 694 0122 61A1      		ldd r22,Z+33
 695 0124 72A1      		ldd r23,Z+34
 696 0126 C101      		movw r24,r2
 697 0128 892F      		mov r24,r25
 698 012a 9927      		clr r25
 699 012c 8695      		lsr r24
 700 012e 480F      		add r20,r24
 701 0130 591F      		adc r21,r25
GAS LISTING C:\Users\ANDRLU~1\AppData\Local\Temp\ccpruXkc.s 			page 13


 702 0132 611D      		adc r22,__zero_reg__
 703 0134 711D      		adc r23,__zero_reg__
 704 0136 CF01      		movw r24,r30
 705 0138 0E94 0000 		call _ZL11move_windowP5FATFSm
 706 013c 282F      		mov r18,r24
 707 013e 392F      		mov r19,r25
 708 0140 2115      		cp r18,__zero_reg__
 709 0142 3105      		cpc r19,__zero_reg__
 710 0144 01F0      		breq .+2
 711 0146 00C0      		rjmp .L54
 712 0148 F101      		movw r30,r2
 713 014a F170      		andi r31,1
 714 014c E80D      		add r30,r8
 715 014e F91D      		adc r31,r9
 716 0150 D701      		movw r26,r14
 717 0152 C601      		movw r24,r12
 718 0154 6894      		set
 719 0156 13F8      		bld __zero_reg__,4-1
 720               		1:
 721 0158 B695      		lsr r27
 722 015a A795      		ror r26
 723 015c 9795      		ror r25
 724 015e 8795      		ror r24
 725 0160 1694      		lsr __zero_reg__
 726 0162 01F4      		brne 1b
 727               	.L50:
 728 0164 8083      		st Z,r24
 729 0166 81E0      		ldi r24,lo8(1)
 730 0168 ED81      		ldd r30,Y+5
 731 016a FE81      		ldd r31,Y+6
 732 016c 8383      		std Z+3,r24
 733 016e 00C0      		rjmp .L43
 734               	.L47:
 735 0170 C082      		st Z,r12
 736 0172 81E0      		ldi r24,lo8(1)
 737 0174 ED81      		ldd r30,Y+5
 738 0176 FE81      		ldd r31,Y+6
 739 0178 8383      		std Z+3,r24
 740 017a 478D      		ldd r20,Z+31
 741 017c 50A1      		ldd r21,Z+32
 742 017e 61A1      		ldd r22,Z+33
 743 0180 72A1      		ldd r23,Z+34
 744 0182 C101      		movw r24,r2
 745 0184 892F      		mov r24,r25
 746 0186 9927      		clr r25
 747 0188 8695      		lsr r24
 748 018a 480F      		add r20,r24
 749 018c 591F      		adc r21,r25
 750 018e 611D      		adc r22,__zero_reg__
 751 0190 711D      		adc r23,__zero_reg__
 752 0192 CF01      		movw r24,r30
 753 0194 0E94 0000 		call _ZL11move_windowP5FATFSm
 754 0198 282F      		mov r18,r24
 755 019a 392F      		mov r19,r25
 756 019c 2115      		cp r18,__zero_reg__
 757 019e 3105      		cpc r19,__zero_reg__
 758 01a0 01F0      		breq .+2
GAS LISTING C:\Users\ANDRLU~1\AppData\Local\Temp\ccpruXkc.s 			page 14


 759 01a2 00C0      		rjmp .L55
 760 01a4 F101      		movw r30,r2
 761 01a6 F170      		andi r31,1
 762 01a8 E80D      		add r30,r8
 763 01aa F91D      		adc r31,r9
 764 01ac 8081      		ld r24,Z
 765 01ae 807F      		andi r24,lo8(-16)
 766 01b0 9D2D      		mov r25,r13
 767 01b2 9F70      		andi r25,lo8(15)
 768 01b4 892B      		or r24,r25
 769 01b6 00C0      		rjmp .L50
 770               	.L45:
 771 01b8 7727      		clr r23
 772 01ba 672D      		mov r22,r7
 773 01bc 562D      		mov r21,r6
 774 01be 452D      		mov r20,r5
 775 01c0 ED81      		ldd r30,Y+5
 776 01c2 FE81      		ldd r31,Y+6
 777 01c4 878D      		ldd r24,Z+31
 778 01c6 90A1      		ldd r25,Z+32
 779 01c8 A1A1      		ldd r26,Z+33
 780 01ca B2A1      		ldd r27,Z+34
 781 01cc 480F      		add r20,r24
 782 01ce 591F      		adc r21,r25
 783 01d0 6A1F      		adc r22,r26
 784 01d2 7B1F      		adc r23,r27
 785 01d4 CF01      		movw r24,r30
 786 01d6 0E94 0000 		call _ZL11move_windowP5FATFSm
 787 01da 082F      		mov r16,r24
 788 01dc 192F      		mov r17,r25
 789 01de 0115      		cp r16,__zero_reg__
 790 01e0 1105      		cpc r17,__zero_reg__
 791 01e2 01F0      		breq .+2
 792 01e4 00C0      		rjmp .L43
 793 01e6 ED81      		ldd r30,Y+5
 794 01e8 FE81      		ldd r31,Y+6
 795 01ea BF96      		adiw r30,47
 796 01ec 440C      		lsl r4
 797 01ee 551C      		rol r5
 798 01f0 E894      		clt
 799 01f2 40F8      		bld r4,0
 800 01f4 31E0      		ldi r19,1
 801 01f6 5322      		and r5,r19
 802 01f8 E40D      		add r30,r4
 803 01fa F51D      		adc r31,r5
 804 01fc C082      		st Z,r12
 805 01fe D182      		std Z+1,r13
 806 0200 81E0      		ldi r24,lo8(1)
 807 0202 ED81      		ldd r30,Y+5
 808 0204 FE81      		ldd r31,Y+6
 809 0206 8383      		std Z+3,r24
 810 0208 00C0      		rjmp .L43
 811               	.L46:
 812 020a ED81      		ldd r30,Y+5
 813 020c FE81      		ldd r31,Y+6
 814 020e 878D      		ldd r24,Z+31
 815 0210 90A1      		ldd r25,Z+32
GAS LISTING C:\Users\ANDRLU~1\AppData\Local\Temp\ccpruXkc.s 			page 15


 816 0212 A1A1      		ldd r26,Z+33
 817 0214 B2A1      		ldd r27,Z+34
 818 0216 B301      		movw r22,r6
 819 0218 A201      		movw r20,r4
 820 021a 6894      		set
 821 021c 16F8      		bld __zero_reg__,7-1
 822               		1:
 823 021e 7695      		lsr r23
 824 0220 6795      		ror r22
 825 0222 5795      		ror r21
 826 0224 4795      		ror r20
 827 0226 1694      		lsr __zero_reg__
 828 0228 01F4      		brne 1b
 829 022a 480F      		add r20,r24
 830 022c 591F      		adc r21,r25
 831 022e 6A1F      		adc r22,r26
 832 0230 7B1F      		adc r23,r27
 833 0232 CF01      		movw r24,r30
 834 0234 0E94 0000 		call _ZL11move_windowP5FATFSm
 835 0238 082F      		mov r16,r24
 836 023a 192F      		mov r17,r25
 837 023c 0115      		cp r16,__zero_reg__
 838 023e 1105      		cpc r17,__zero_reg__
 839 0240 01F0      		breq .+2
 840 0242 00C0      		rjmp .L43
 841 0244 FFE0      		ldi r31,15
 842 0246 FF22      		and r15,r31
 843 0248 AD80      		ldd r10,Y+5
 844 024a BE80      		ldd r11,Y+6
 845 024c 3FE2      		ldi r19,47
 846 024e A30E      		add r10,r19
 847 0250 B11C      		adc r11,__zero_reg__
 848 0252 440C      		lsl r4
 849 0254 551C      		rol r5
 850 0256 440C      		lsl r4
 851 0258 551C      		rol r5
 852 025a 8CEF      		ldi r24,252
 853 025c 4822      		and r4,r24
 854 025e 81E0      		ldi r24,1
 855 0260 5822      		and r5,r24
 856 0262 A40C      		add r10,r4
 857 0264 B51C      		adc r11,r5
 858 0266 C501      		movw r24,r10
 859 0268 0E94 0000 		call _ZL8ld_dwordPKh
 860 026c 6983      		std Y+1,r22
 861 026e 7A83      		std Y+2,r23
 862 0270 8B83      		std Y+3,r24
 863 0272 9C83      		std Y+4,r25
 864 0274 DC01      		movw r26,r24
 865 0276 CB01      		movw r24,r22
 866 0278 8827      		clr r24
 867 027a 9927      		clr r25
 868 027c AA27      		clr r26
 869 027e B07F      		andi r27,240
 870 0280 8C29      		or r24,r12
 871 0282 9D29      		or r25,r13
 872 0284 AE29      		or r26,r14
GAS LISTING C:\Users\ANDRLU~1\AppData\Local\Temp\ccpruXkc.s 			page 16


 873 0286 BF29      		or r27,r15
 874 0288 F501      		movw r30,r10
 875 028a 8083      		st Z,r24
 876 028c 9183      		std Z+1,r25
 877 028e A283      		std Z+2,r26
 878 0290 B383      		std Z+3,r27
 879 0292 81E0      		ldi r24,lo8(1)
 880 0294 ED81      		ldd r30,Y+5
 881 0296 FE81      		ldd r31,Y+6
 882 0298 8383      		std Z+3,r24
 883 029a 00C0      		rjmp .L43
 884               	.L54:
 885 029c 8901      		movw r16,r18
 886 029e 00C0      		rjmp .L43
 887               	.L55:
 888 02a0 8901      		movw r16,r18
 889 02a2 00C0      		rjmp .L43
 891               		.section	.text._ZL7get_fatP7FFOBJIDm,"ax",@progbits
 893               	_ZL7get_fatP7FFOBJIDm:
 894 0000 AF92      		push r10
 895 0002 BF92      		push r11
 896 0004 CF92      		push r12
 897 0006 DF92      		push r13
 898 0008 EF92      		push r14
 899 000a FF92      		push r15
 900 000c 0F93      		push r16
 901 000e 1F93      		push r17
 902 0010 CF93      		push r28
 903 0012 DF93      		push r29
 904 0014 00D0      		rcall .
 905 0016 00D0      		rcall .
 906 0018 CDB7      		in r28,__SP_L__
 907 001a DEB7      		in r29,__SP_H__
 908               	/* prologue: function */
 909               	/* frame size = 4 */
 910               	/* stack size = 14 */
 911               	.L__stack_usage = 14
 912 001c E82F      		mov r30,r24
 913 001e F92F      		mov r31,r25
 914 0020 C42E      		mov r12,r20
 915 0022 D52E      		mov r13,r21
 916 0024 E62E      		mov r14,r22
 917 0026 F72E      		mov r15,r23
 918 0028 22E0      		ldi r18,2
 919 002a C216      		cp r12,r18
 920 002c D104      		cpc r13,__zero_reg__
 921 002e E104      		cpc r14,__zero_reg__
 922 0030 F104      		cpc r15,__zero_reg__
 923 0032 00F4      		brsh .+2
 924 0034 00C0      		rjmp .L64
 925 0036 4081      		ld r20,Z
 926 0038 5181      		ldd r21,Z+1
 927 003a 5A83      		std Y+2,r21
 928 003c 4983      		std Y+1,r20
 929 003e FA01      		movw r30,r20
 930 0040 8389      		ldd r24,Z+19
 931 0042 9489      		ldd r25,Z+20
GAS LISTING C:\Users\ANDRLU~1\AppData\Local\Temp\ccpruXkc.s 			page 17


 932 0044 A589      		ldd r26,Z+21
 933 0046 B689      		ldd r27,Z+22
 934 0048 C816      		cp r12,r24
 935 004a D906      		cpc r13,r25
 936 004c EA06      		cpc r14,r26
 937 004e FB06      		cpc r15,r27
 938 0050 00F0      		brlo .+2
 939 0052 00C0      		rjmp .L65
 940 0054 8081      		ld r24,Z
 941 0056 8230      		cpi r24,lo8(2)
 942 0058 01F4      		brne .+2
 943 005a 00C0      		rjmp .L61
 944 005c 8330      		cpi r24,lo8(3)
 945 005e 01F4      		brne .+2
 946 0060 00C0      		rjmp .L62
 947 0062 8130      		cpi r24,lo8(1)
 948 0064 01F0      		breq .L71
 949 0066 81E0      		ldi r24,lo8(1)
 950 0068 90E0      		ldi r25,0
 951 006a A0E0      		ldi r26,0
 952 006c B0E0      		ldi r27,0
 953 006e 8983      		std Y+1,r24
 954 0070 9A83      		std Y+2,r25
 955 0072 AB83      		std Y+3,r26
 956 0074 BC83      		std Y+4,r27
 957 0076 00C0      		rjmp .L59
 958               	.L71:
 959 0078 8601      		movw r16,r12
 960 007a 1695      		lsr r17
 961 007c 0795      		ror r16
 962 007e 0C0D      		add r16,r12
 963 0080 1D1D      		adc r17,r13
 964 0082 C801      		movw r24,r16
 965 0084 892F      		mov r24,r25
 966 0086 9927      		clr r25
 967 0088 8695      		lsr r24
 968 008a 478D      		ldd r20,Z+31
 969 008c 50A1      		ldd r21,Z+32
 970 008e 61A1      		ldd r22,Z+33
 971 0090 72A1      		ldd r23,Z+34
 972 0092 480F      		add r20,r24
 973 0094 591F      		adc r21,r25
 974 0096 611D      		adc r22,__zero_reg__
 975 0098 711D      		adc r23,__zero_reg__
 976 009a CF01      		movw r24,r30
 977 009c 0E94 0000 		call _ZL11move_windowP5FATFSm
 978 00a0 892B      		or r24,r25
 979 00a2 01F0      		breq .L72
 980 00a4 2FEF      		ldi r18,lo8(-1)
 981 00a6 3FEF      		ldi r19,lo8(-1)
 982 00a8 A901      		movw r20,r18
 983 00aa 2983      		std Y+1,r18
 984 00ac 3A83      		std Y+2,r19
 985 00ae 4B83      		std Y+3,r20
 986 00b0 5C83      		std Y+4,r21
 987 00b2 00C0      		rjmp .L59
 988               	.L72:
GAS LISTING C:\Users\ANDRLU~1\AppData\Local\Temp\ccpruXkc.s 			page 18


 989 00b4 5801      		movw r10,r16
 990 00b6 FFEF      		ldi r31,-1
 991 00b8 AF1A      		sub r10,r31
 992 00ba BF0A      		sbc r11,r31
 993 00bc F801      		movw r30,r16
 994 00be F170      		andi r31,1
 995 00c0 2981      		ldd r18,Y+1
 996 00c2 3A81      		ldd r19,Y+2
 997 00c4 E20F      		add r30,r18
 998 00c6 F31F      		adc r31,r19
 999 00c8 17A5      		ldd r17,Z+47
 1000 00ca C501      		movw r24,r10
 1001 00cc 892F      		mov r24,r25
 1002 00ce 9927      		clr r25
 1003 00d0 8695      		lsr r24
 1004 00d2 D901      		movw r26,r18
 1005 00d4 5F96      		adiw r26,31
 1006 00d6 4D91      		ld r20,X+
 1007 00d8 5D91      		ld r21,X+
 1008 00da 6D91      		ld r22,X+
 1009 00dc 7C91      		ld r23,X
 1010 00de 9297      		sbiw r26,31+3
 1011 00e0 480F      		add r20,r24
 1012 00e2 591F      		adc r21,r25
 1013 00e4 611D      		adc r22,__zero_reg__
 1014 00e6 711D      		adc r23,__zero_reg__
 1015 00e8 C901      		movw r24,r18
 1016 00ea 0E94 0000 		call _ZL11move_windowP5FATFSm
 1017 00ee 892B      		or r24,r25
 1018 00f0 01F0      		breq .+2
 1019 00f2 00C0      		rjmp .L68
 1020 00f4 F501      		movw r30,r10
 1021 00f6 F170      		andi r31,1
 1022 00f8 2981      		ldd r18,Y+1
 1023 00fa 3A81      		ldd r19,Y+2
 1024 00fc E20F      		add r30,r18
 1025 00fe F31F      		adc r31,r19
 1026 0100 87A5      		ldd r24,Z+47
 1027 0102 982F      		mov r25,r24
 1028 0104 812F      		mov r24,r17
 1029 0106 C0FE      		sbrs r12,0
 1030 0108 00C0      		rjmp .L63
 1031 010a 9295      		swap r25
 1032 010c 8295      		swap r24
 1033 010e 8F70      		andi r24,0x0f
 1034 0110 8927      		eor r24,r25
 1035 0112 9F70      		andi r25,0x0f
 1036 0114 8927      		eor r24,r25
 1037 0116 9C01      		movw r18,r24
 1038 0118 40E0      		ldi r20,0
 1039 011a 50E0      		ldi r21,0
 1040 011c 2983      		std Y+1,r18
 1041 011e 3A83      		std Y+2,r19
 1042 0120 4B83      		std Y+3,r20
 1043 0122 5C83      		std Y+4,r21
 1044 0124 00C0      		rjmp .L59
 1045               	.L63:
GAS LISTING C:\Users\ANDRLU~1\AppData\Local\Temp\ccpruXkc.s 			page 19


 1046 0126 9F70      		andi r25,15
 1047 0128 9C01      		movw r18,r24
 1048 012a 40E0      		ldi r20,0
 1049 012c 50E0      		ldi r21,0
 1050 012e 2983      		std Y+1,r18
 1051 0130 3A83      		std Y+2,r19
 1052 0132 4B83      		std Y+3,r20
 1053 0134 5C83      		std Y+4,r21
 1054 0136 00C0      		rjmp .L59
 1055               	.L61:
 1056 0138 7727      		clr r23
 1057 013a 6F2D      		mov r22,r15
 1058 013c 5E2D      		mov r21,r14
 1059 013e 4D2D      		mov r20,r13
 1060 0140 E981      		ldd r30,Y+1
 1061 0142 FA81      		ldd r31,Y+2
 1062 0144 878D      		ldd r24,Z+31
 1063 0146 90A1      		ldd r25,Z+32
 1064 0148 A1A1      		ldd r26,Z+33
 1065 014a B2A1      		ldd r27,Z+34
 1066 014c 480F      		add r20,r24
 1067 014e 591F      		adc r21,r25
 1068 0150 6A1F      		adc r22,r26
 1069 0152 7B1F      		adc r23,r27
 1070 0154 CF01      		movw r24,r30
 1071 0156 0E94 0000 		call _ZL11move_windowP5FATFSm
 1072 015a 892B      		or r24,r25
 1073 015c 01F0      		breq .+2
 1074 015e 00C0      		rjmp .L69
 1075 0160 2981      		ldd r18,Y+1
 1076 0162 3A81      		ldd r19,Y+2
 1077 0164 215D      		subi r18,-47
 1078 0166 3F4F      		sbci r19,-1
 1079 0168 3A83      		std Y+2,r19
 1080 016a 2983      		std Y+1,r18
 1081 016c CC0C      		lsl r12
 1082 016e DD1C      		rol r13
 1083 0170 E894      		clt
 1084 0172 C0F8      		bld r12,0
 1085 0174 31E0      		ldi r19,1
 1086 0176 D322      		and r13,r19
 1087 0178 4981      		ldd r20,Y+1
 1088 017a 5A81      		ldd r21,Y+2
 1089 017c 4C0D      		add r20,r12
 1090 017e 5D1D      		adc r21,r13
 1091 0180 DA01      		movw r26,r20
 1092 0182 1196      		adiw r26,1
 1093 0184 9C91      		ld r25,X
 1094 0186 1197      		sbiw r26,1
 1095 0188 8C91      		ld r24,X
 1096 018a 9C01      		movw r18,r24
 1097 018c 40E0      		ldi r20,0
 1098 018e 50E0      		ldi r21,0
 1099 0190 2983      		std Y+1,r18
 1100 0192 3A83      		std Y+2,r19
 1101 0194 4B83      		std Y+3,r20
 1102 0196 5C83      		std Y+4,r21
GAS LISTING C:\Users\ANDRLU~1\AppData\Local\Temp\ccpruXkc.s 			page 20


 1103 0198 00C0      		rjmp .L59
 1104               	.L62:
 1105 019a E981      		ldd r30,Y+1
 1106 019c FA81      		ldd r31,Y+2
 1107 019e 878D      		ldd r24,Z+31
 1108 01a0 90A1      		ldd r25,Z+32
 1109 01a2 A1A1      		ldd r26,Z+33
 1110 01a4 B2A1      		ldd r27,Z+34
 1111 01a6 B701      		movw r22,r14
 1112 01a8 A601      		movw r20,r12
 1113 01aa 6894      		set
 1114 01ac 16F8      		bld __zero_reg__,7-1
 1115               		1:
 1116 01ae 7695      		lsr r23
 1117 01b0 6795      		ror r22
 1118 01b2 5795      		ror r21
 1119 01b4 4795      		ror r20
 1120 01b6 1694      		lsr __zero_reg__
 1121 01b8 01F4      		brne 1b
 1122 01ba 480F      		add r20,r24
 1123 01bc 591F      		adc r21,r25
 1124 01be 6A1F      		adc r22,r26
 1125 01c0 7B1F      		adc r23,r27
 1126 01c2 CF01      		movw r24,r30
 1127 01c4 0E94 0000 		call _ZL11move_windowP5FATFSm
 1128 01c8 892B      		or r24,r25
 1129 01ca 01F0      		breq .+2
 1130 01cc 00C0      		rjmp .L70
 1131 01ce 8981      		ldd r24,Y+1
 1132 01d0 9A81      		ldd r25,Y+2
 1133 01d2 8F96      		adiw r24,47
 1134 01d4 CC0C      		lsl r12
 1135 01d6 DD1C      		rol r13
 1136 01d8 CC0C      		lsl r12
 1137 01da DD1C      		rol r13
 1138 01dc FCEF      		ldi r31,252
 1139 01de CF22      		and r12,r31
 1140 01e0 F1E0      		ldi r31,1
 1141 01e2 DF22      		and r13,r31
 1142 01e4 8C0D      		add r24,r12
 1143 01e6 9D1D      		adc r25,r13
 1144 01e8 0E94 0000 		call _ZL8ld_dwordPKh
 1145 01ec 9B01      		movw r18,r22
 1146 01ee AC01      		movw r20,r24
 1147 01f0 5F70      		andi r21,15
 1148 01f2 2983      		std Y+1,r18
 1149 01f4 3A83      		std Y+2,r19
 1150 01f6 4B83      		std Y+3,r20
 1151 01f8 5C83      		std Y+4,r21
 1152 01fa 00C0      		rjmp .L59
 1153               	.L64:
 1154 01fc 81E0      		ldi r24,lo8(1)
 1155 01fe 90E0      		ldi r25,0
 1156 0200 A0E0      		ldi r26,0
 1157 0202 B0E0      		ldi r27,0
 1158 0204 8983      		std Y+1,r24
 1159 0206 9A83      		std Y+2,r25
GAS LISTING C:\Users\ANDRLU~1\AppData\Local\Temp\ccpruXkc.s 			page 21


 1160 0208 AB83      		std Y+3,r26
 1161 020a BC83      		std Y+4,r27
 1162               	.L59:
 1163 020c 6981      		ldd r22,Y+1
 1164 020e 7A81      		ldd r23,Y+2
 1165 0210 8B81      		ldd r24,Y+3
 1166 0212 9C81      		ldd r25,Y+4
 1167               	/* epilogue start */
 1168 0214 0F90      		pop __tmp_reg__
 1169 0216 0F90      		pop __tmp_reg__
 1170 0218 0F90      		pop __tmp_reg__
 1171 021a 0F90      		pop __tmp_reg__
 1172 021c DF91      		pop r29
 1173 021e CF91      		pop r28
 1174 0220 1F91      		pop r17
 1175 0222 0F91      		pop r16
 1176 0224 FF90      		pop r15
 1177 0226 EF90      		pop r14
 1178 0228 DF90      		pop r13
 1179 022a CF90      		pop r12
 1180 022c BF90      		pop r11
 1181 022e AF90      		pop r10
 1182 0230 0895      		ret
 1183               	.L65:
 1184 0232 21E0      		ldi r18,lo8(1)
 1185 0234 30E0      		ldi r19,0
 1186 0236 40E0      		ldi r20,0
 1187 0238 50E0      		ldi r21,0
 1188 023a 2983      		std Y+1,r18
 1189 023c 3A83      		std Y+2,r19
 1190 023e 4B83      		std Y+3,r20
 1191 0240 5C83      		std Y+4,r21
 1192 0242 00C0      		rjmp .L59
 1193               	.L68:
 1194 0244 8FEF      		ldi r24,lo8(-1)
 1195 0246 9FEF      		ldi r25,lo8(-1)
 1196 0248 DC01      		movw r26,r24
 1197 024a 8983      		std Y+1,r24
 1198 024c 9A83      		std Y+2,r25
 1199 024e AB83      		std Y+3,r26
 1200 0250 BC83      		std Y+4,r27
 1201 0252 00C0      		rjmp .L59
 1202               	.L69:
 1203 0254 2FEF      		ldi r18,lo8(-1)
 1204 0256 3FEF      		ldi r19,lo8(-1)
 1205 0258 A901      		movw r20,r18
 1206 025a 2983      		std Y+1,r18
 1207 025c 3A83      		std Y+2,r19
 1208 025e 4B83      		std Y+3,r20
 1209 0260 5C83      		std Y+4,r21
 1210 0262 00C0      		rjmp .L59
 1211               	.L70:
 1212 0264 8FEF      		ldi r24,lo8(-1)
 1213 0266 9FEF      		ldi r25,lo8(-1)
 1214 0268 DC01      		movw r26,r24
 1215 026a 8983      		std Y+1,r24
 1216 026c 9A83      		std Y+2,r25
GAS LISTING C:\Users\ANDRLU~1\AppData\Local\Temp\ccpruXkc.s 			page 22


 1217 026e AB83      		std Y+3,r26
 1218 0270 BC83      		std Y+4,r27
 1219 0272 00C0      		rjmp .L59
 1221               		.section	.text._ZL7dir_sdiP3DIRm,"ax",@progbits
 1223               	_ZL7dir_sdiP3DIRm:
 1224 0000 4F92      		push r4
 1225 0002 5F92      		push r5
 1226 0004 6F92      		push r6
 1227 0006 7F92      		push r7
 1228 0008 8F92      		push r8
 1229 000a 9F92      		push r9
 1230 000c AF92      		push r10
 1231 000e BF92      		push r11
 1232 0010 CF92      		push r12
 1233 0012 DF92      		push r13
 1234 0014 EF92      		push r14
 1235 0016 FF92      		push r15
 1236 0018 0F93      		push r16
 1237 001a 1F93      		push r17
 1238 001c CF93      		push r28
 1239 001e DF93      		push r29
 1240               	/* prologue: function */
 1241               	/* frame size = 0 */
 1242               	/* stack size = 16 */
 1243               	.L__stack_usage = 16
 1244 0020 C82F      		mov r28,r24
 1245 0022 D92F      		mov r29,r25
 1246 0024 442E      		mov r4,r20
 1247 0026 552E      		mov r5,r21
 1248 0028 662E      		mov r6,r22
 1249 002a 772E      		mov r7,r23
 1250 002c 4114      		cp r4,__zero_reg__
 1251 002e 5104      		cpc r5,__zero_reg__
 1252 0030 80E2      		ldi r24,32
 1253 0032 6806      		cpc r6,r24
 1254 0034 7104      		cpc r7,__zero_reg__
 1255 0036 00F0      		brlo .+2
 1256 0038 00C0      		rjmp .L80
 1257 003a D301      		movw r26,r6
 1258 003c C201      		movw r24,r4
 1259 003e 8F71      		andi r24,31
 1260 0040 9927      		clr r25
 1261 0042 AA27      		clr r26
 1262 0044 BB27      		clr r27
 1263 0046 892B      		or r24,r25
 1264 0048 8A2B      		or r24,r26
 1265 004a 8B2B      		or r24,r27
 1266 004c 01F0      		breq .+2
 1267 004e 00C0      		rjmp .L81
 1268 0050 0881      		ld r16,Y
 1269 0052 1981      		ldd r17,Y+1
 1270 0054 4E86      		std Y+14,r4
 1271 0056 5F86      		std Y+15,r5
 1272 0058 688A      		std Y+16,r6
 1273 005a 798A      		std Y+17,r7
 1274 005c CE80      		ldd r12,Y+6
 1275 005e DF80      		ldd r13,Y+7
GAS LISTING C:\Users\ANDRLU~1\AppData\Local\Temp\ccpruXkc.s 			page 23


 1276 0060 E884      		ldd r14,Y+8
 1277 0062 F984      		ldd r15,Y+9
 1278 0064 C114      		cp r12,__zero_reg__
 1279 0066 D104      		cpc r13,__zero_reg__
 1280 0068 E104      		cpc r14,__zero_reg__
 1281 006a F104      		cpc r15,__zero_reg__
 1282 006c 01F4      		brne .L75
 1283 006e F801      		movw r30,r16
 1284 0070 8081      		ld r24,Z
 1285 0072 8330      		cpi r24,lo8(3)
 1286 0074 00F4      		brsh .+2
 1287 0076 00C0      		rjmp .L76
 1288 0078 83A1      		ldd r24,Z+35
 1289 007a 94A1      		ldd r25,Z+36
 1290 007c A5A1      		ldd r26,Z+37
 1291 007e B6A1      		ldd r27,Z+38
 1292 0080 0097      		sbiw r24,0
 1293 0082 A105      		cpc r26,__zero_reg__
 1294 0084 B105      		cpc r27,__zero_reg__
 1295 0086 01F4      		brne .+2
 1296 0088 00C0      		rjmp .L76
 1297 008a 6C01      		movw r12,r24
 1298 008c 7D01      		movw r14,r26
 1299               	.L75:
 1300 008e F801      		movw r30,r16
 1301 0090 8184      		ldd r8,Z+9
 1302 0092 9284      		ldd r9,Z+10
 1303 0094 A12C      		mov r10,__zero_reg__
 1304 0096 B12C      		mov r11,__zero_reg__
 1305 0098 072E      		mov r0,r23
 1306 009a 79E0      		ldi r23,9
 1307               		1:
 1308 009c 880C      		lsl r8
 1309 009e 991C      		rol r9
 1310 00a0 AA1C      		rol r10
 1311 00a2 BB1C      		rol r11
 1312 00a4 7A95      		dec r23
 1313 00a6 01F4      		brne 1b
 1314 00a8 702D      		mov r23,r0
 1315 00aa 4814      		cp r4,r8
 1316 00ac 5904      		cpc r5,r9
 1317 00ae 6A04      		cpc r6,r10
 1318 00b0 7B04      		cpc r7,r11
 1319 00b2 00F0      		brlo .L78
 1320               	.L79:
 1321 00b4 B701      		movw r22,r14
 1322 00b6 A601      		movw r20,r12
 1323 00b8 CE01      		movw r24,r28
 1324 00ba 0E94 0000 		call _ZL7get_fatP7FFOBJIDm
 1325 00be C62E      		mov r12,r22
 1326 00c0 D72E      		mov r13,r23
 1327 00c2 E82E      		mov r14,r24
 1328 00c4 F92E      		mov r15,r25
 1329 00c6 FFEF      		ldi r31,-1
 1330 00c8 CF16      		cp r12,r31
 1331 00ca DF06      		cpc r13,r31
 1332 00cc EF06      		cpc r14,r31
GAS LISTING C:\Users\ANDRLU~1\AppData\Local\Temp\ccpruXkc.s 			page 24


 1333 00ce FF06      		cpc r15,r31
 1334 00d0 01F4      		brne .+2
 1335 00d2 00C0      		rjmp .L84
 1336 00d4 82E0      		ldi r24,2
 1337 00d6 C816      		cp r12,r24
 1338 00d8 D104      		cpc r13,__zero_reg__
 1339 00da E104      		cpc r14,__zero_reg__
 1340 00dc F104      		cpc r15,__zero_reg__
 1341 00de 00F4      		brsh .+2
 1342 00e0 00C0      		rjmp .L85
 1343 00e2 F801      		movw r30,r16
 1344 00e4 8389      		ldd r24,Z+19
 1345 00e6 9489      		ldd r25,Z+20
 1346 00e8 A589      		ldd r26,Z+21
 1347 00ea B689      		ldd r27,Z+22
 1348 00ec C816      		cp r12,r24
 1349 00ee D906      		cpc r13,r25
 1350 00f0 EA06      		cpc r14,r26
 1351 00f2 FB06      		cpc r15,r27
 1352 00f4 00F0      		brlo .+2
 1353 00f6 00C0      		rjmp .L86
 1354 00f8 4818      		sub r4,r8
 1355 00fa 5908      		sbc r5,r9
 1356 00fc 6A08      		sbc r6,r10
 1357 00fe 7B08      		sbc r7,r11
 1358 0100 4814      		cp r4,r8
 1359 0102 5904      		cpc r5,r9
 1360 0104 6A04      		cpc r6,r10
 1361 0106 7B04      		cpc r7,r11
 1362 0108 00F4      		brsh .L79
 1363               	.L78:
 1364 010a B701      		movw r22,r14
 1365 010c A601      		movw r20,r12
 1366 010e C801      		movw r24,r16
 1367 0110 0E94 0000 		call _ZL9clst2sectP5FATFSm
 1368 0114 462F      		mov r20,r22
 1369 0116 572F      		mov r21,r23
 1370 0118 682F      		mov r22,r24
 1371 011a 792F      		mov r23,r25
 1372 011c 00C0      		rjmp .L77
 1373               	.L76:
 1374 011e F801      		movw r30,r16
 1375 0120 8781      		ldd r24,Z+7
 1376 0122 9085      		ldd r25,Z+8
 1377 0124 A0E0      		ldi r26,0
 1378 0126 B0E0      		ldi r27,0
 1379 0128 B301      		movw r22,r6
 1380 012a A201      		movw r20,r4
 1381 012c 6894      		set
 1382 012e 14F8      		bld __zero_reg__,5-1
 1383               		1:
 1384 0130 7695      		lsr r23
 1385 0132 6795      		ror r22
 1386 0134 5795      		ror r21
 1387 0136 4795      		ror r20
 1388 0138 1694      		lsr __zero_reg__
 1389 013a 01F4      		brne 1b
GAS LISTING C:\Users\ANDRLU~1\AppData\Local\Temp\ccpruXkc.s 			page 25


 1390 013c 4817      		cp r20,r24
 1391 013e 5907      		cpc r21,r25
 1392 0140 6A07      		cpc r22,r26
 1393 0142 7B07      		cpc r23,r27
 1394 0144 00F0      		brlo .+2
 1395 0146 00C0      		rjmp .L83
 1396 0148 43A1      		ldd r20,Z+35
 1397 014a 54A1      		ldd r21,Z+36
 1398 014c 65A1      		ldd r22,Z+37
 1399 014e 76A1      		ldd r23,Z+38
 1400               	.L77:
 1401 0150 4E8B      		std Y+22,r20
 1402 0152 5F8B      		std Y+23,r21
 1403 0154 688F      		std Y+24,r22
 1404 0156 798F      		std Y+25,r23
 1405 0158 CA8A      		std Y+18,r12
 1406 015a DB8A      		std Y+19,r13
 1407 015c EC8A      		std Y+20,r14
 1408 015e FD8A      		std Y+21,r15
 1409 0160 82E0      		ldi r24,lo8(2)
 1410 0162 90E0      		ldi r25,0
 1411 0164 4115      		cp r20,__zero_reg__
 1412 0166 5105      		cpc r21,__zero_reg__
 1413 0168 6105      		cpc r22,__zero_reg__
 1414 016a 7105      		cpc r23,__zero_reg__
 1415 016c 01F0      		breq .L73
 1416 016e D301      		movw r26,r6
 1417 0170 C201      		movw r24,r4
 1418 0172 072E      		mov r0,r23
 1419 0174 79E0      		ldi r23,9
 1420               		1:
 1421 0176 B695      		lsr r27
 1422 0178 A795      		ror r26
 1423 017a 9795      		ror r25
 1424 017c 8795      		ror r24
 1425 017e 7A95      		dec r23
 1426 0180 01F4      		brne 1b
 1427 0182 702D      		mov r23,r0
 1428 0184 840F      		add r24,r20
 1429 0186 951F      		adc r25,r21
 1430 0188 A61F      		adc r26,r22
 1431 018a B71F      		adc r27,r23
 1432 018c 8E8B      		std Y+22,r24
 1433 018e 9F8B      		std Y+23,r25
 1434 0190 A88F      		std Y+24,r26
 1435 0192 B98F      		std Y+25,r27
 1436 0194 015D      		subi r16,-47
 1437 0196 1F4F      		sbci r17,-1
 1438 0198 F1E0      		ldi r31,1
 1439 019a 5F22      		and r5,r31
 1440 019c 040D      		add r16,r4
 1441 019e 151D      		adc r17,r5
 1442 01a0 1B8F      		std Y+27,r17
 1443 01a2 0A8F      		std Y+26,r16
 1444 01a4 80E0      		ldi r24,0
 1445 01a6 90E0      		ldi r25,0
 1446 01a8 00C0      		rjmp .L73
GAS LISTING C:\Users\ANDRLU~1\AppData\Local\Temp\ccpruXkc.s 			page 26


 1447               	.L80:
 1448 01aa 82E0      		ldi r24,lo8(2)
 1449 01ac 90E0      		ldi r25,0
 1450               	.L73:
 1451               	/* epilogue start */
 1452 01ae DF91      		pop r29
 1453 01b0 CF91      		pop r28
 1454 01b2 1F91      		pop r17
 1455 01b4 0F91      		pop r16
 1456 01b6 FF90      		pop r15
 1457 01b8 EF90      		pop r14
 1458 01ba DF90      		pop r13
 1459 01bc CF90      		pop r12
 1460 01be BF90      		pop r11
 1461 01c0 AF90      		pop r10
 1462 01c2 9F90      		pop r9
 1463 01c4 8F90      		pop r8
 1464 01c6 7F90      		pop r7
 1465 01c8 6F90      		pop r6
 1466 01ca 5F90      		pop r5
 1467 01cc 4F90      		pop r4
 1468 01ce 0895      		ret
 1469               	.L81:
 1470 01d0 82E0      		ldi r24,lo8(2)
 1471 01d2 90E0      		ldi r25,0
 1472 01d4 00C0      		rjmp .L73
 1473               	.L83:
 1474 01d6 82E0      		ldi r24,lo8(2)
 1475 01d8 90E0      		ldi r25,0
 1476 01da 00C0      		rjmp .L73
 1477               	.L84:
 1478 01dc 81E0      		ldi r24,lo8(1)
 1479 01de 90E0      		ldi r25,0
 1480 01e0 00C0      		rjmp .L73
 1481               	.L85:
 1482 01e2 82E0      		ldi r24,lo8(2)
 1483 01e4 90E0      		ldi r25,0
 1484 01e6 00C0      		rjmp .L73
 1485               	.L86:
 1486 01e8 82E0      		ldi r24,lo8(2)
 1487 01ea 90E0      		ldi r25,0
 1488 01ec 00C0      		rjmp .L73
 1490               		.section	.text._ZL12create_chainP7FFOBJIDm,"ax",@progbits
 1492               	_ZL12create_chainP7FFOBJIDm:
 1493 0000 4F92      		push r4
 1494 0002 5F92      		push r5
 1495 0004 6F92      		push r6
 1496 0006 7F92      		push r7
 1497 0008 8F92      		push r8
 1498 000a 9F92      		push r9
 1499 000c AF92      		push r10
 1500 000e BF92      		push r11
 1501 0010 CF92      		push r12
 1502 0012 DF92      		push r13
 1503 0014 EF92      		push r14
 1504 0016 FF92      		push r15
 1505 0018 0F93      		push r16
GAS LISTING C:\Users\ANDRLU~1\AppData\Local\Temp\ccpruXkc.s 			page 27


 1506 001a 1F93      		push r17
 1507 001c CF93      		push r28
 1508 001e DF93      		push r29
 1509               	/* prologue: function */
 1510               	/* frame size = 0 */
 1511               	/* stack size = 16 */
 1512               	.L__stack_usage = 16
 1513 0020 082F      		mov r16,r24
 1514 0022 192F      		mov r17,r25
 1515 0024 842E      		mov r8,r20
 1516 0026 952E      		mov r9,r21
 1517 0028 A62E      		mov r10,r22
 1518 002a B72E      		mov r11,r23
 1519 002c F801      		movw r30,r16
 1520 002e C081      		ld r28,Z
 1521 0030 D181      		ldd r29,Z+1
 1522 0032 8114      		cp r8,__zero_reg__
 1523 0034 9104      		cpc r9,__zero_reg__
 1524 0036 A104      		cpc r10,__zero_reg__
 1525 0038 B104      		cpc r11,__zero_reg__
 1526 003a 01F4      		brne .L90
 1527 003c CB84      		ldd r12,Y+11
 1528 003e DC84      		ldd r13,Y+12
 1529 0040 ED84      		ldd r14,Y+13
 1530 0042 FE84      		ldd r15,Y+14
 1531 0044 C114      		cp r12,__zero_reg__
 1532 0046 D104      		cpc r13,__zero_reg__
 1533 0048 E104      		cpc r14,__zero_reg__
 1534 004a F104      		cpc r15,__zero_reg__
 1535 004c 01F4      		brne .+2
 1536 004e 00C0      		rjmp .L105
 1537 0050 8B89      		ldd r24,Y+19
 1538 0052 9C89      		ldd r25,Y+20
 1539 0054 AD89      		ldd r26,Y+21
 1540 0056 BE89      		ldd r27,Y+22
 1541 0058 C816      		cp r12,r24
 1542 005a D906      		cpc r13,r25
 1543 005c EA06      		cpc r14,r26
 1544 005e FB06      		cpc r15,r27
 1545 0060 00F4      		brsh .+2
 1546 0062 00C0      		rjmp .L91
 1547 0064 C12C      		mov r12,__zero_reg__
 1548 0066 D12C      		mov r13,__zero_reg__
 1549 0068 7601      		movw r14,r12
 1550 006a C394      		inc r12
 1551 006c 00C0      		rjmp .L91
 1552               	.L90:
 1553 006e B501      		movw r22,r10
 1554 0070 A401      		movw r20,r8
 1555 0072 C801      		movw r24,r16
 1556 0074 0E94 0000 		call _ZL7get_fatP7FFOBJIDm
 1557 0078 6230      		cpi r22,2
 1558 007a 7105      		cpc r23,__zero_reg__
 1559 007c 8105      		cpc r24,__zero_reg__
 1560 007e 9105      		cpc r25,__zero_reg__
 1561 0080 00F4      		brsh .+2
 1562 0082 00C0      		rjmp .L107
GAS LISTING C:\Users\ANDRLU~1\AppData\Local\Temp\ccpruXkc.s 			page 28


 1563 0084 6F3F      		cpi r22,-1
 1564 0086 FFEF      		ldi r31,-1
 1565 0088 7F07      		cpc r23,r31
 1566 008a 8F07      		cpc r24,r31
 1567 008c 9F07      		cpc r25,r31
 1568 008e 01F4      		brne .+2
 1569 0090 00C0      		rjmp .L89
 1570 0092 4B88      		ldd r4,Y+19
 1571 0094 5C88      		ldd r5,Y+20
 1572 0096 6D88      		ldd r6,Y+21
 1573 0098 7E88      		ldd r7,Y+22
 1574 009a 6415      		cp r22,r4
 1575 009c 7505      		cpc r23,r5
 1576 009e 8605      		cpc r24,r6
 1577 00a0 9705      		cpc r25,r7
 1578 00a2 00F4      		brsh .+2
 1579 00a4 00C0      		rjmp .L89
 1580 00a6 6F85      		ldd r22,Y+15
 1581 00a8 7889      		ldd r23,Y+16
 1582 00aa 8989      		ldd r24,Y+17
 1583 00ac 9A89      		ldd r25,Y+18
 1584 00ae 6115      		cp r22,__zero_reg__
 1585 00b0 7105      		cpc r23,__zero_reg__
 1586 00b2 8105      		cpc r24,__zero_reg__
 1587 00b4 9105      		cpc r25,__zero_reg__
 1588 00b6 01F4      		brne .+2
 1589 00b8 00C0      		rjmp .L89
 1590 00ba 7501      		movw r14,r10
 1591 00bc 6401      		movw r12,r8
 1592 00be 2FEF      		ldi r18,-1
 1593 00c0 C21A      		sub r12,r18
 1594 00c2 D20A      		sbc r13,r18
 1595 00c4 E20A      		sbc r14,r18
 1596 00c6 F20A      		sbc r15,r18
 1597 00c8 C414      		cp r12,r4
 1598 00ca D504      		cpc r13,r5
 1599 00cc E604      		cpc r14,r6
 1600 00ce F704      		cpc r15,r7
 1601 00d0 00F0      		brlo .L94
 1602 00d2 C12C      		mov r12,__zero_reg__
 1603 00d4 D12C      		mov r13,__zero_reg__
 1604 00d6 7601      		movw r14,r12
 1605 00d8 6894      		set
 1606 00da C1F8      		bld r12,1
 1607               	.L94:
 1608 00dc B701      		movw r22,r14
 1609 00de A601      		movw r20,r12
 1610 00e0 C801      		movw r24,r16
 1611 00e2 0E94 0000 		call _ZL7get_fatP7FFOBJIDm
 1612 00e6 6130      		cpi r22,1
 1613 00e8 7105      		cpc r23,__zero_reg__
 1614 00ea 8105      		cpc r24,__zero_reg__
 1615 00ec 9105      		cpc r25,__zero_reg__
 1616 00ee 01F4      		brne .+2
 1617 00f0 00C0      		rjmp .L89
 1618 00f2 6F3F      		cpi r22,-1
 1619 00f4 EFEF      		ldi r30,-1
GAS LISTING C:\Users\ANDRLU~1\AppData\Local\Temp\ccpruXkc.s 			page 29


 1620 00f6 7E07      		cpc r23,r30
 1621 00f8 8E07      		cpc r24,r30
 1622 00fa 9E07      		cpc r25,r30
 1623 00fc 01F4      		brne .+2
 1624 00fe 00C0      		rjmp .L89
 1625 0100 672B      		or r22,r23
 1626 0102 682B      		or r22,r24
 1627 0104 692B      		or r22,r25
 1628 0106 01F0      		breq .L95
 1629 0108 CB84      		ldd r12,Y+11
 1630 010a DC84      		ldd r13,Y+12
 1631 010c ED84      		ldd r14,Y+13
 1632 010e FE84      		ldd r15,Y+14
 1633 0110 F2E0      		ldi r31,2
 1634 0112 CF16      		cp r12,r31
 1635 0114 D104      		cpc r13,__zero_reg__
 1636 0116 E104      		cpc r14,__zero_reg__
 1637 0118 F104      		cpc r15,__zero_reg__
 1638 011a 00F4      		brsh .+2
 1639 011c 00C0      		rjmp .L109
 1640 011e 8B89      		ldd r24,Y+19
 1641 0120 9C89      		ldd r25,Y+20
 1642 0122 AD89      		ldd r26,Y+21
 1643 0124 BE89      		ldd r27,Y+22
 1644 0126 C816      		cp r12,r24
 1645 0128 D906      		cpc r13,r25
 1646 012a EA06      		cpc r14,r26
 1647 012c FB06      		cpc r15,r27
 1648 012e 00F4      		brsh .+2
 1649 0130 00C0      		rjmp .L96
 1650 0132 7501      		movw r14,r10
 1651 0134 6401      		movw r12,r8
 1652 0136 00C0      		rjmp .L96
 1653               	.L95:
 1654 0138 C114      		cp r12,__zero_reg__
 1655 013a D104      		cpc r13,__zero_reg__
 1656 013c E104      		cpc r14,__zero_reg__
 1657 013e F104      		cpc r15,__zero_reg__
 1658 0140 01F0      		breq .L115
 1659               	.L97:
 1660 0142 0FEF      		ldi r16,lo8(-1)
 1661 0144 1FEF      		ldi r17,lo8(-1)
 1662 0146 9801      		movw r18,r16
 1663 0148 B701      		movw r22,r14
 1664 014a A601      		movw r20,r12
 1665 014c CE01      		movw r24,r28
 1666 014e 0E94 0000 		call _ZL7put_fatP5FATFSmm
 1667 0152 282F      		mov r18,r24
 1668 0154 392F      		mov r19,r25
 1669 0156 2115      		cp r18,__zero_reg__
 1670 0158 3105      		cpc r19,__zero_reg__
 1671 015a 01F0      		breq .+2
 1672 015c 00C0      		rjmp .L100
 1673 015e 8114      		cp r8,__zero_reg__
 1674 0160 9104      		cpc r9,__zero_reg__
 1675 0162 A104      		cpc r10,__zero_reg__
 1676 0164 B104      		cpc r11,__zero_reg__
GAS LISTING C:\Users\ANDRLU~1\AppData\Local\Temp\ccpruXkc.s 			page 30


 1677 0166 01F0      		breq .+2
 1678 0168 00C0      		rjmp .L116
 1679               	.L101:
 1680 016a CB86      		std Y+11,r12
 1681 016c DC86      		std Y+12,r13
 1682 016e ED86      		std Y+13,r14
 1683 0170 FE86      		std Y+14,r15
 1684 0172 4F85      		ldd r20,Y+15
 1685 0174 5889      		ldd r21,Y+16
 1686 0176 6989      		ldd r22,Y+17
 1687 0178 7A89      		ldd r23,Y+18
 1688 017a 8B89      		ldd r24,Y+19
 1689 017c 9C89      		ldd r25,Y+20
 1690 017e AD89      		ldd r26,Y+21
 1691 0180 BE89      		ldd r27,Y+22
 1692 0182 0297      		sbiw r24,2
 1693 0184 A109      		sbc r26,__zero_reg__
 1694 0186 B109      		sbc r27,__zero_reg__
 1695 0188 8417      		cp r24,r20
 1696 018a 9507      		cpc r25,r21
 1697 018c A607      		cpc r26,r22
 1698 018e B707      		cpc r27,r23
 1699 0190 00F0      		brlo .L102
 1700 0192 4150      		subi r20,1
 1701 0194 5109      		sbc r21,__zero_reg__
 1702 0196 6109      		sbc r22,__zero_reg__
 1703 0198 7109      		sbc r23,__zero_reg__
 1704 019a 4F87      		std Y+15,r20
 1705 019c 588B      		std Y+16,r21
 1706 019e 698B      		std Y+17,r22
 1707 01a0 7A8B      		std Y+18,r23
 1708               	.L102:
 1709 01a2 8C81      		ldd r24,Y+4
 1710 01a4 8160      		ori r24,lo8(1)
 1711 01a6 8C83      		std Y+4,r24
 1712 01a8 C701      		movw r24,r14
 1713 01aa B601      		movw r22,r12
 1714 01ac 00C0      		rjmp .L89
 1715               	.L115:
 1716 01ae 2401      		movw r4,r8
 1717 01b0 3501      		movw r6,r10
 1718 01b2 7501      		movw r14,r10
 1719 01b4 6401      		movw r12,r8
 1720 01b6 00C0      		rjmp .L99
 1721               	.L98:
 1722 01b8 B701      		movw r22,r14
 1723 01ba A601      		movw r20,r12
 1724 01bc C801      		movw r24,r16
 1725 01be 0E94 0000 		call _ZL7get_fatP7FFOBJIDm
 1726 01c2 6115      		cp r22,__zero_reg__
 1727 01c4 7105      		cpc r23,__zero_reg__
 1728 01c6 8105      		cpc r24,__zero_reg__
 1729 01c8 9105      		cpc r25,__zero_reg__
 1730 01ca 01F4      		brne .+2
 1731 01cc 00C0      		rjmp .L97
 1732 01ce 6130      		cpi r22,1
 1733 01d0 7105      		cpc r23,__zero_reg__
GAS LISTING C:\Users\ANDRLU~1\AppData\Local\Temp\ccpruXkc.s 			page 31


 1734 01d2 8105      		cpc r24,__zero_reg__
 1735 01d4 9105      		cpc r25,__zero_reg__
 1736 01d6 01F0      		breq .L89
 1737 01d8 6F3F      		cpi r22,-1
 1738 01da EFEF      		ldi r30,-1
 1739 01dc 7E07      		cpc r23,r30
 1740 01de 8E07      		cpc r24,r30
 1741 01e0 9E07      		cpc r25,r30
 1742 01e2 01F0      		breq .L89
 1743 01e4 C414      		cp r12,r4
 1744 01e6 D504      		cpc r13,r5
 1745 01e8 E604      		cpc r14,r6
 1746 01ea F704      		cpc r15,r7
 1747 01ec 01F4      		brne .+2
 1748 01ee 00C0      		rjmp .L117
 1749               	.L99:
 1750 01f0 2FEF      		ldi r18,-1
 1751 01f2 C21A      		sub r12,r18
 1752 01f4 D20A      		sbc r13,r18
 1753 01f6 E20A      		sbc r14,r18
 1754 01f8 F20A      		sbc r15,r18
 1755 01fa 8B89      		ldd r24,Y+19
 1756 01fc 9C89      		ldd r25,Y+20
 1757 01fe AD89      		ldd r26,Y+21
 1758 0200 BE89      		ldd r27,Y+22
 1759 0202 C816      		cp r12,r24
 1760 0204 D906      		cpc r13,r25
 1761 0206 EA06      		cpc r14,r26
 1762 0208 FB06      		cpc r15,r27
 1763 020a 00F0      		brlo .L98
 1764 020c 82E0      		ldi r24,2
 1765 020e 4816      		cp r4,r24
 1766 0210 5104      		cpc r5,__zero_reg__
 1767 0212 6104      		cpc r6,__zero_reg__
 1768 0214 7104      		cpc r7,__zero_reg__
 1769 0216 00F0      		brlo .L110
 1770 0218 C12C      		mov r12,__zero_reg__
 1771 021a D12C      		mov r13,__zero_reg__
 1772 021c 7601      		movw r14,r12
 1773 021e 6894      		set
 1774 0220 C1F8      		bld r12,1
 1775 0222 00C0      		rjmp .L98
 1776               	.L116:
 1777 0224 9701      		movw r18,r14
 1778 0226 8601      		movw r16,r12
 1779 0228 B501      		movw r22,r10
 1780 022a A401      		movw r20,r8
 1781 022c CE01      		movw r24,r28
 1782 022e 0E94 0000 		call _ZL7put_fatP5FATFSmm
 1783 0232 282F      		mov r18,r24
 1784 0234 392F      		mov r19,r25
 1785 0236 2115      		cp r18,__zero_reg__
 1786 0238 3105      		cpc r19,__zero_reg__
 1787 023a 01F4      		brne .+2
 1788 023c 00C0      		rjmp .L101
 1789               	.L100:
 1790 023e 6FEF      		ldi r22,lo8(-1)
GAS LISTING C:\Users\ANDRLU~1\AppData\Local\Temp\ccpruXkc.s 			page 32


 1791 0240 7FEF      		ldi r23,lo8(-1)
 1792 0242 CB01      		movw r24,r22
 1793 0244 2130      		cpi r18,1
 1794 0246 3105      		cpc r19,__zero_reg__
 1795 0248 01F0      		breq .L89
 1796 024a 61E0      		ldi r22,lo8(1)
 1797 024c 70E0      		ldi r23,0
 1798 024e 80E0      		ldi r24,0
 1799 0250 90E0      		ldi r25,0
 1800               	.L89:
 1801               	/* epilogue start */
 1802 0252 DF91      		pop r29
 1803 0254 CF91      		pop r28
 1804 0256 1F91      		pop r17
 1805 0258 0F91      		pop r16
 1806 025a FF90      		pop r15
 1807 025c EF90      		pop r14
 1808 025e DF90      		pop r13
 1809 0260 CF90      		pop r12
 1810 0262 BF90      		pop r11
 1811 0264 AF90      		pop r10
 1812 0266 9F90      		pop r9
 1813 0268 8F90      		pop r8
 1814 026a 7F90      		pop r7
 1815 026c 6F90      		pop r6
 1816 026e 5F90      		pop r5
 1817 0270 4F90      		pop r4
 1818 0272 0895      		ret
 1819               	.L107:
 1820 0274 61E0      		ldi r22,lo8(1)
 1821 0276 70E0      		ldi r23,0
 1822 0278 80E0      		ldi r24,0
 1823 027a 90E0      		ldi r25,0
 1824 027c 00C0      		rjmp .L89
 1825               	.L110:
 1826 027e 60E0      		ldi r22,0
 1827 0280 70E0      		ldi r23,0
 1828 0282 CB01      		movw r24,r22
 1829 0284 00C0      		rjmp .L89
 1830               	.L117:
 1831 0286 60E0      		ldi r22,0
 1832 0288 70E0      		ldi r23,0
 1833 028a CB01      		movw r24,r22
 1834 028c 00C0      		rjmp .L89
 1835               	.L105:
 1836 028e C12C      		mov r12,__zero_reg__
 1837 0290 D12C      		mov r13,__zero_reg__
 1838 0292 7601      		movw r14,r12
 1839 0294 C394      		inc r12
 1840               	.L91:
 1841 0296 6F85      		ldd r22,Y+15
 1842 0298 7889      		ldd r23,Y+16
 1843 029a 8989      		ldd r24,Y+17
 1844 029c 9A89      		ldd r25,Y+18
 1845 029e 6115      		cp r22,__zero_reg__
 1846 02a0 7105      		cpc r23,__zero_reg__
 1847 02a2 8105      		cpc r24,__zero_reg__
GAS LISTING C:\Users\ANDRLU~1\AppData\Local\Temp\ccpruXkc.s 			page 33


 1848 02a4 9105      		cpc r25,__zero_reg__
 1849 02a6 01F0      		breq .L89
 1850               	.L96:
 1851 02a8 2601      		movw r4,r12
 1852 02aa 3701      		movw r6,r14
 1853 02ac 00C0      		rjmp .L99
 1854               	.L109:
 1855 02ae 7501      		movw r14,r10
 1856 02b0 6401      		movw r12,r8
 1857 02b2 00C0      		rjmp .L96
 1859               		.section	.text._ZL8dir_nextP3DIRi,"ax",@progbits
 1861               	_ZL8dir_nextP3DIRi:
 1862 0000 2F92      		push r2
 1863 0002 3F92      		push r3
 1864 0004 4F92      		push r4
 1865 0006 5F92      		push r5
 1866 0008 6F92      		push r6
 1867 000a 7F92      		push r7
 1868 000c 8F92      		push r8
 1869 000e 9F92      		push r9
 1870 0010 AF92      		push r10
 1871 0012 BF92      		push r11
 1872 0014 CF92      		push r12
 1873 0016 DF92      		push r13
 1874 0018 EF92      		push r14
 1875 001a FF92      		push r15
 1876 001c 0F93      		push r16
 1877 001e 1F93      		push r17
 1878 0020 CF93      		push r28
 1879 0022 DF93      		push r29
 1880 0024 CDB7      		in r28,__SP_L__
 1881 0026 DEB7      		in r29,__SP_H__
 1882 0028 2A97      		sbiw r28,10
 1883 002a 0FB6      		in __tmp_reg__,__SREG__
 1884 002c F894      		cli
 1885 002e DEBF      		out __SP_H__,r29
 1886 0030 0FBE      		out __SREG__,__tmp_reg__
 1887 0032 CDBF      		out __SP_L__,r28
 1888               	/* prologue: function */
 1889               	/* frame size = 10 */
 1890               	/* stack size = 28 */
 1891               	.L__stack_usage = 28
 1892 0034 8D83      		std Y+5,r24
 1893 0036 9E83      		std Y+6,r25
 1894 0038 062F      		mov r16,r22
 1895 003a 172F      		mov r17,r23
 1896 003c AD81      		ldd r26,Y+5
 1897 003e BE81      		ldd r27,Y+6
 1898 0040 1E96      		adiw r26,14
 1899 0042 CD90      		ld r12,X+
 1900 0044 DD90      		ld r13,X+
 1901 0046 ED90      		ld r14,X+
 1902 0048 FC90      		ld r15,X
 1903 004a 5197      		sbiw r26,14+3
 1904 004c B0E2      		ldi r27,32
 1905 004e CB0E      		add r12,r27
 1906 0050 D11C      		adc r13,__zero_reg__
GAS LISTING C:\Users\ANDRLU~1\AppData\Local\Temp\ccpruXkc.s 			page 34


 1907 0052 E11C      		adc r14,__zero_reg__
 1908 0054 F11C      		adc r15,__zero_reg__
 1909 0056 ED81      		ldd r30,Y+5
 1910 0058 FE81      		ldd r31,Y+6
 1911 005a 8689      		ldd r24,Z+22
 1912 005c 9789      		ldd r25,Z+23
 1913 005e A08D      		ldd r26,Z+24
 1914 0060 B18D      		ldd r27,Z+25
 1915 0062 0097      		sbiw r24,0
 1916 0064 A105      		cpc r26,__zero_reg__
 1917 0066 B105      		cpc r27,__zero_reg__
 1918 0068 01F4      		brne .+2
 1919 006a 00C0      		rjmp .L127
 1920 006c C114      		cp r12,__zero_reg__
 1921 006e D104      		cpc r13,__zero_reg__
 1922 0070 F0E2      		ldi r31,32
 1923 0072 EF06      		cpc r14,r31
 1924 0074 F104      		cpc r15,__zero_reg__
 1925 0076 00F0      		brlo .+2
 1926 0078 00C0      		rjmp .L128
 1927 007a ED81      		ldd r30,Y+5
 1928 007c FE81      		ldd r31,Y+6
 1929 007e A080      		ld r10,Z
 1930 0080 B180      		ldd r11,Z+1
 1931 0082 B701      		movw r22,r14
 1932 0084 A601      		movw r20,r12
 1933 0086 5170      		andi r21,1
 1934 0088 6627      		clr r22
 1935 008a 7727      		clr r23
 1936 008c 452B      		or r20,r21
 1937 008e 462B      		or r20,r22
 1938 0090 472B      		or r20,r23
 1939 0092 01F4      		brne .L120
 1940 0094 0196      		adiw r24,1
 1941 0096 A11D      		adc r26,__zero_reg__
 1942 0098 B11D      		adc r27,__zero_reg__
 1943 009a 868B      		std Z+22,r24
 1944 009c 978B      		std Z+23,r25
 1945 009e A08F      		std Z+24,r26
 1946 00a0 B18F      		std Z+25,r27
 1947 00a2 4289      		ldd r20,Z+18
 1948 00a4 5389      		ldd r21,Z+19
 1949 00a6 6489      		ldd r22,Z+20
 1950 00a8 7589      		ldd r23,Z+21
 1951 00aa 4115      		cp r20,__zero_reg__
 1952 00ac 5105      		cpc r21,__zero_reg__
 1953 00ae 6105      		cpc r22,__zero_reg__
 1954 00b0 7105      		cpc r23,__zero_reg__
 1955 00b2 01F0      		breq .+2
 1956 00b4 00C0      		rjmp .L121
 1957 00b6 D501      		movw r26,r10
 1958 00b8 1796      		adiw r26,7
 1959 00ba 8D91      		ld r24,X+
 1960 00bc 9C91      		ld r25,X
 1961 00be A0E0      		ldi r26,0
 1962 00c0 B0E0      		ldi r27,0
 1963 00c2 B701      		movw r22,r14
GAS LISTING C:\Users\ANDRLU~1\AppData\Local\Temp\ccpruXkc.s 			page 35


 1964 00c4 A601      		movw r20,r12
 1965 00c6 6894      		set
 1966 00c8 14F8      		bld __zero_reg__,5-1
 1967               		1:
 1968 00ca 7695      		lsr r23
 1969 00cc 6795      		ror r22
 1970 00ce 5795      		ror r21
 1971 00d0 4795      		ror r20
 1972 00d2 1694      		lsr __zero_reg__
 1973 00d4 01F4      		brne 1b
 1974 00d6 4817      		cp r20,r24
 1975 00d8 5907      		cpc r21,r25
 1976 00da 6A07      		cpc r22,r26
 1977 00dc 7B07      		cpc r23,r27
 1978 00de 00F4      		brsh .L138
 1979               	.L120:
 1980 00e0 AD81      		ldd r26,Y+5
 1981 00e2 BE81      		ldd r27,Y+6
 1982 00e4 1E96      		adiw r26,14
 1983 00e6 CD92      		st X+,r12
 1984 00e8 DD92      		st X+,r13
 1985 00ea ED92      		st X+,r14
 1986 00ec FC92      		st X,r15
 1987 00ee 5197      		sbiw r26,14+3
 1988 00f0 BFE2      		ldi r27,47
 1989 00f2 AB0E      		add r10,r27
 1990 00f4 B11C      		adc r11,__zero_reg__
 1991 00f6 E1E0      		ldi r30,1
 1992 00f8 DE22      		and r13,r30
 1993 00fa AC0C      		add r10,r12
 1994 00fc BD1C      		adc r11,r13
 1995 00fe AD81      		ldd r26,Y+5
 1996 0100 BE81      		ldd r27,Y+6
 1997 0102 5B96      		adiw r26,26+1
 1998 0104 BC92      		st X,r11
 1999 0106 AE92      		st -X,r10
 2000 0108 5A97      		sbiw r26,26
 2001 010a 80E0      		ldi r24,0
 2002 010c 90E0      		ldi r25,0
 2003               	.L118:
 2004               	/* epilogue start */
 2005 010e 2A96      		adiw r28,10
 2006 0110 0FB6      		in __tmp_reg__,__SREG__
 2007 0112 F894      		cli
 2008 0114 DEBF      		out __SP_H__,r29
 2009 0116 0FBE      		out __SREG__,__tmp_reg__
 2010 0118 CDBF      		out __SP_L__,r28
 2011 011a DF91      		pop r29
 2012 011c CF91      		pop r28
 2013 011e 1F91      		pop r17
 2014 0120 0F91      		pop r16
 2015 0122 FF90      		pop r15
 2016 0124 EF90      		pop r14
 2017 0126 DF90      		pop r13
 2018 0128 CF90      		pop r12
 2019 012a BF90      		pop r11
 2020 012c AF90      		pop r10
GAS LISTING C:\Users\ANDRLU~1\AppData\Local\Temp\ccpruXkc.s 			page 36


 2021 012e 9F90      		pop r9
 2022 0130 8F90      		pop r8
 2023 0132 7F90      		pop r7
 2024 0134 6F90      		pop r6
 2025 0136 5F90      		pop r5
 2026 0138 4F90      		pop r4
 2027 013a 3F90      		pop r3
 2028 013c 2F90      		pop r2
 2029 013e 0895      		ret
 2030               	.L138:
 2031 0140 168A      		std Z+22,__zero_reg__
 2032 0142 178A      		std Z+23,__zero_reg__
 2033 0144 108E      		std Z+24,__zero_reg__
 2034 0146 118E      		std Z+25,__zero_reg__
 2035 0148 84E0      		ldi r24,lo8(4)
 2036 014a 90E0      		ldi r25,0
 2037 014c 00C0      		rjmp .L118
 2038               	.L121:
 2039 014e D501      		movw r26,r10
 2040 0150 1996      		adiw r26,9
 2041 0152 8D91      		ld r24,X+
 2042 0154 9C91      		ld r25,X
 2043 0156 0197      		sbiw r24,1
 2044 0158 A0E0      		ldi r26,0
 2045 015a B0E0      		ldi r27,0
 2046 015c 2601      		movw r4,r12
 2047 015e 3701      		movw r6,r14
 2048 0160 032E      		mov r0,r19
 2049 0162 39E0      		ldi r19,9
 2050               		1:
 2051 0164 7694      		lsr r7
 2052 0166 6794      		ror r6
 2053 0168 5794      		ror r5
 2054 016a 4794      		ror r4
 2055 016c 3A95      		dec r19
 2056 016e 01F4      		brne 1b
 2057 0170 302D      		mov r19,r0
 2058 0172 8421      		and r24,r4
 2059 0174 9521      		and r25,r5
 2060 0176 A621      		and r26,r6
 2061 0178 B721      		and r27,r7
 2062 017a 892B      		or r24,r25
 2063 017c 8A2B      		or r24,r26
 2064 017e 8B2B      		or r24,r27
 2065 0180 01F0      		breq .+2
 2066 0182 00C0      		rjmp .L120
 2067 0184 8D81      		ldd r24,Y+5
 2068 0186 9E81      		ldd r25,Y+6
 2069 0188 0E94 0000 		call _ZL7get_fatP7FFOBJIDm
 2070 018c 462E      		mov r4,r22
 2071 018e 572E      		mov r5,r23
 2072 0190 682E      		mov r6,r24
 2073 0192 792E      		mov r7,r25
 2074 0194 82E0      		ldi r24,lo8(2)
 2075 0196 90E0      		ldi r25,0
 2076 0198 B2E0      		ldi r27,2
 2077 019a 4B16      		cp r4,r27
GAS LISTING C:\Users\ANDRLU~1\AppData\Local\Temp\ccpruXkc.s 			page 37


 2078 019c 5104      		cpc r5,__zero_reg__
 2079 019e 6104      		cpc r6,__zero_reg__
 2080 01a0 7104      		cpc r7,__zero_reg__
 2081 01a2 00F4      		brsh .+2
 2082 01a4 00C0      		rjmp .L118
 2083 01a6 81E0      		ldi r24,lo8(1)
 2084 01a8 90E0      		ldi r25,0
 2085 01aa EFEF      		ldi r30,-1
 2086 01ac 4E16      		cp r4,r30
 2087 01ae 5E06      		cpc r5,r30
 2088 01b0 6E06      		cpc r6,r30
 2089 01b2 7E06      		cpc r7,r30
 2090 01b4 01F4      		brne .+2
 2091 01b6 00C0      		rjmp .L118
 2092 01b8 F501      		movw r30,r10
 2093 01ba 8389      		ldd r24,Z+19
 2094 01bc 9489      		ldd r25,Z+20
 2095 01be A589      		ldd r26,Z+21
 2096 01c0 B689      		ldd r27,Z+22
 2097 01c2 4816      		cp r4,r24
 2098 01c4 5906      		cpc r5,r25
 2099 01c6 6A06      		cpc r6,r26
 2100 01c8 7B06      		cpc r7,r27
 2101 01ca 00F4      		brsh .+2
 2102 01cc 00C0      		rjmp .L122
 2103 01ce 012B      		or r16,r17
 2104 01d0 01F4      		brne .+2
 2105 01d2 00C0      		rjmp .L139
 2106 01d4 ED81      		ldd r30,Y+5
 2107 01d6 FE81      		ldd r31,Y+6
 2108 01d8 4289      		ldd r20,Z+18
 2109 01da 5389      		ldd r21,Z+19
 2110 01dc 6489      		ldd r22,Z+20
 2111 01de 7589      		ldd r23,Z+21
 2112 01e0 CF01      		movw r24,r30
 2113 01e2 0E94 0000 		call _ZL12create_chainP7FFOBJIDm
 2114 01e6 462E      		mov r4,r22
 2115 01e8 572E      		mov r5,r23
 2116 01ea 682E      		mov r6,r24
 2117 01ec 792E      		mov r7,r25
 2118 01ee 87E0      		ldi r24,lo8(7)
 2119 01f0 90E0      		ldi r25,0
 2120 01f2 4114      		cp r4,__zero_reg__
 2121 01f4 5104      		cpc r5,__zero_reg__
 2122 01f6 6104      		cpc r6,__zero_reg__
 2123 01f8 7104      		cpc r7,__zero_reg__
 2124 01fa 01F4      		brne .+2
 2125 01fc 00C0      		rjmp .L118
 2126 01fe F1E0      		ldi r31,1
 2127 0200 4F16      		cp r4,r31
 2128 0202 5104      		cpc r5,__zero_reg__
 2129 0204 6104      		cpc r6,__zero_reg__
 2130 0206 7104      		cpc r7,__zero_reg__
 2131 0208 01F4      		brne .+2
 2132 020a 00C0      		rjmp .L132
 2133 020c 81E0      		ldi r24,lo8(1)
 2134 020e 90E0      		ldi r25,0
GAS LISTING C:\Users\ANDRLU~1\AppData\Local\Temp\ccpruXkc.s 			page 38


 2135 0210 2FEF      		ldi r18,-1
 2136 0212 4216      		cp r4,r18
 2137 0214 5206      		cpc r5,r18
 2138 0216 6206      		cpc r6,r18
 2139 0218 7206      		cpc r7,r18
 2140 021a 01F4      		brne .+2
 2141 021c 00C0      		rjmp .L118
 2142 021e C501      		movw r24,r10
 2143 0220 0E94 0000 		call _ZL11sync_windowP5FATFS
 2144 0224 882E      		mov r8,r24
 2145 0226 992E      		mov r9,r25
 2146 0228 81E0      		ldi r24,lo8(1)
 2147 022a 90E0      		ldi r25,0
 2148 022c 8114      		cp r8,__zero_reg__
 2149 022e 9104      		cpc r9,__zero_reg__
 2150 0230 01F0      		breq .+2
 2151 0232 00C0      		rjmp .L118
 2152 0234 B301      		movw r22,r6
 2153 0236 A201      		movw r20,r4
 2154 0238 C501      		movw r24,r10
 2155 023a 0E94 0000 		call _ZL9clst2sectP5FATFSm
 2156 023e 6983      		std Y+1,r22
 2157 0240 7A83      		std Y+2,r23
 2158 0242 8B83      		std Y+3,r24
 2159 0244 9C83      		std Y+4,r25
 2160 0246 8981      		ldd r24,Y+1
 2161 0248 9A81      		ldd r25,Y+2
 2162 024a AB81      		ldd r26,Y+3
 2163 024c BC81      		ldd r27,Y+4
 2164 024e F501      		movw r30,r10
 2165 0250 83A7      		std Z+43,r24
 2166 0252 94A7      		std Z+44,r25
 2167 0254 A5A7      		std Z+45,r26
 2168 0256 B6A7      		std Z+46,r27
 2169 0258 1501      		movw r2,r10
 2170 025a FFE2      		ldi r31,47
 2171 025c 2F0E      		add r2,r31
 2172 025e 311C      		adc r3,__zero_reg__
 2173 0260 C501      		movw r24,r10
 2174 0262 815D      		subi r24,-47
 2175 0264 9D4F      		sbci r25,-3
 2176 0266 9101      		movw r18,r2
 2177               	.L124:
 2178 0268 F901      		movw r30,r18
 2179 026a 2F5F      		subi r18,-1
 2180 026c 3F4F      		sbci r19,-1
 2181 026e 1082      		st Z,__zero_reg__
 2182 0270 2817      		cp r18,r24
 2183 0272 3907      		cpc r19,r25
 2184 0274 01F4      		brne .L124
 2185 0276 D501      		movw r26,r10
 2186 0278 1996      		adiw r26,9
 2187 027a 8D91      		ld r24,X+
 2188 027c 9C91      		ld r25,X
 2189 027e 892B      		or r24,r25
 2190 0280 01F0      		breq .L122
 2191               	.L126:
GAS LISTING C:\Users\ANDRLU~1\AppData\Local\Temp\ccpruXkc.s 			page 39


 2192 0282 01E0      		ldi r16,lo8(1)
 2193 0284 10E0      		ldi r17,0
 2194 0286 2981      		ldd r18,Y+1
 2195 0288 3A81      		ldd r19,Y+2
 2196 028a 4B81      		ldd r20,Y+3
 2197 028c 5C81      		ldd r21,Y+4
 2198 028e 280D      		add r18,r8
 2199 0290 391D      		adc r19,r9
 2200 0292 411D      		adc r20,__zero_reg__
 2201 0294 511D      		adc r21,__zero_reg__
 2202 0296 B101      		movw r22,r2
 2203 0298 F501      		movw r30,r10
 2204 029a 8181      		ldd r24,Z+1
 2205 029c 0E94 0000 		call disk_write
 2206 02a0 892B      		or r24,r25
 2207 02a2 01F4      		brne .L125
 2208 02a4 FFEF      		ldi r31,-1
 2209 02a6 8F1A      		sub r8,r31
 2210 02a8 9F0A      		sbc r9,r31
 2211 02aa D501      		movw r26,r10
 2212 02ac 1996      		adiw r26,9
 2213 02ae 8D91      		ld r24,X+
 2214 02b0 9C91      		ld r25,X
 2215 02b2 8816      		cp r8,r24
 2216 02b4 9906      		cpc r9,r25
 2217 02b6 00F0      		brlo .L126
 2218               	.L125:
 2219 02b8 F501      		movw r30,r10
 2220 02ba 8185      		ldd r24,Z+9
 2221 02bc 9285      		ldd r25,Z+10
 2222 02be 8815      		cp r24,r8
 2223 02c0 9905      		cpc r25,r9
 2224 02c2 01F4      		brne .L135
 2225               	.L122:
 2226 02c4 AD81      		ldd r26,Y+5
 2227 02c6 BE81      		ldd r27,Y+6
 2228 02c8 5296      		adiw r26,18
 2229 02ca 4D92      		st X+,r4
 2230 02cc 5D92      		st X+,r5
 2231 02ce 6D92      		st X+,r6
 2232 02d0 7C92      		st X,r7
 2233 02d2 5597      		sbiw r26,18+3
 2234 02d4 B301      		movw r22,r6
 2235 02d6 A201      		movw r20,r4
 2236 02d8 C501      		movw r24,r10
 2237 02da 0E94 0000 		call _ZL9clst2sectP5FATFSm
 2238 02de 6F83      		std Y+7,r22
 2239 02e0 7887      		std Y+8,r23
 2240 02e2 8987      		std Y+9,r24
 2241 02e4 9A87      		std Y+10,r25
 2242 02e6 ED81      		ldd r30,Y+5
 2243 02e8 FE81      		ldd r31,Y+6
 2244 02ea 668B      		std Z+22,r22
 2245 02ec 778B      		std Z+23,r23
 2246 02ee 808F      		std Z+24,r24
 2247 02f0 918F      		std Z+25,r25
 2248 02f2 00C0      		rjmp .L120
GAS LISTING C:\Users\ANDRLU~1\AppData\Local\Temp\ccpruXkc.s 			page 40


 2249               	.L139:
 2250 02f4 AD81      		ldd r26,Y+5
 2251 02f6 BE81      		ldd r27,Y+6
 2252 02f8 5696      		adiw r26,22
 2253 02fa 1D92      		st X+,__zero_reg__
 2254 02fc 1D92      		st X+,__zero_reg__
 2255 02fe 1D92      		st X+,__zero_reg__
 2256 0300 1C92      		st X,__zero_reg__
 2257 0302 5997      		sbiw r26,22+3
 2258 0304 84E0      		ldi r24,lo8(4)
 2259 0306 90E0      		ldi r25,0
 2260 0308 00C0      		rjmp .L118
 2261               	.L127:
 2262 030a 84E0      		ldi r24,lo8(4)
 2263 030c 90E0      		ldi r25,0
 2264 030e 00C0      		rjmp .L118
 2265               	.L128:
 2266 0310 84E0      		ldi r24,lo8(4)
 2267 0312 90E0      		ldi r25,0
 2268 0314 00C0      		rjmp .L118
 2269               	.L132:
 2270 0316 82E0      		ldi r24,lo8(2)
 2271 0318 90E0      		ldi r25,0
 2272 031a 00C0      		rjmp .L118
 2273               	.L135:
 2274 031c 81E0      		ldi r24,lo8(1)
 2275 031e 90E0      		ldi r25,0
 2276 0320 00C0      		rjmp .L118
 2278               		.section	.rodata._ZL8check_fsP5FATFSm.str1.1,"aMS",@progbits,1
 2279               	.LC0:
 2280 0000 4641 5400 		.string	"FAT"
 2281               	.LC1:
 2282 0004 4641 5433 		.string	"FAT32"
 2282      3200 
 2283               		.section	.text._ZL8check_fsP5FATFSm,"ax",@progbits
 2285               	_ZL8check_fsP5FATFSm:
 2286 0000 CF93      		push r28
 2287 0002 DF93      		push r29
 2288               	/* prologue: function */
 2289               	/* frame size = 0 */
 2290               	/* stack size = 2 */
 2291               	.L__stack_usage = 2
 2292 0004 C82F      		mov r28,r24
 2293 0006 D92F      		mov r29,r25
 2294 0008 1B82      		std Y+3,__zero_reg__
 2295 000a 8FEF      		ldi r24,lo8(-1)
 2296 000c 9FEF      		ldi r25,lo8(-1)
 2297 000e DC01      		movw r26,r24
 2298 0010 8BA7      		std Y+43,r24
 2299 0012 9CA7      		std Y+44,r25
 2300 0014 ADA7      		std Y+45,r26
 2301 0016 BEA7      		std Y+46,r27
 2302 0018 CE01      		movw r24,r28
 2303 001a 0E94 0000 		call _ZL11move_windowP5FATFSm
 2304 001e 892B      		or r24,r25
 2305 0020 01F4      		brne .L144
 2306 0022 FE01      		movw r30,r28
GAS LISTING C:\Users\ANDRLU~1\AppData\Local\Temp\ccpruXkc.s 			page 41


 2307 0024 E25D      		subi r30,-46
 2308 0026 FD4F      		sbci r31,-3
 2309 0028 9081      		ld r25,Z
 2310 002a 3197      		sbiw r30,1
 2311 002c 8081      		ld r24,Z
 2312 002e 8535      		cpi r24,85
 2313 0030 9A4A      		sbci r25,-86
 2314 0032 01F4      		brne .L145
 2315 0034 8FA5      		ldd r24,Y+47
 2316 0036 98E1      		ldi r25,lo8(24)
 2317 0038 980F      		add r25,r24
 2318 003a 9230      		cpi r25,lo8(2)
 2319 003c 00F0      		brlo .L142
 2320 003e 8B3E      		cpi r24,lo8(-21)
 2321 0040 01F0      		breq .L142
 2322 0042 82E0      		ldi r24,lo8(2)
 2323 0044 00C0      		rjmp .L140
 2324               	.L142:
 2325 0046 43E0      		ldi r20,lo8(3)
 2326 0048 50E0      		ldi r21,0
 2327 004a 60E0      		ldi r22,lo8(.LC0)
 2328 004c 70E0      		ldi r23,hi8(.LC0)
 2329 004e CE01      		movw r24,r28
 2330 0050 8B59      		subi r24,-101
 2331 0052 9F4F      		sbci r25,-1
 2332 0054 0E94 0000 		call _ZL7mem_cmpPKvS0_j
 2333 0058 892B      		or r24,r25
 2334 005a 01F4      		brne .L148
 2335 005c 80E0      		ldi r24,0
 2336 005e 00C0      		rjmp .L140
 2337               	.L148:
 2338 0060 45E0      		ldi r20,lo8(5)
 2339 0062 50E0      		ldi r21,0
 2340 0064 60E0      		ldi r22,lo8(.LC1)
 2341 0066 70E0      		ldi r23,hi8(.LC1)
 2342 0068 CE01      		movw r24,r28
 2343 006a 8F57      		subi r24,127
 2344 006c 9F4F      		sbci r25,-1
 2345 006e 0E94 0000 		call _ZL7mem_cmpPKvS0_j
 2346 0072 9C01      		movw r18,r24
 2347 0074 81E0      		ldi r24,lo8(1)
 2348 0076 232B      		or r18,r19
 2349 0078 01F4      		brne .L143
 2350 007a 80E0      		ldi r24,0
 2351               	.L143:
 2352 007c 880F      		lsl r24
 2353 007e 00C0      		rjmp .L140
 2354               	.L144:
 2355 0080 84E0      		ldi r24,lo8(4)
 2356 0082 00C0      		rjmp .L140
 2357               	.L145:
 2358 0084 83E0      		ldi r24,lo8(3)
 2359               	.L140:
 2360               	/* epilogue start */
 2361 0086 DF91      		pop r29
 2362 0088 CF91      		pop r28
 2363 008a 0895      		ret
GAS LISTING C:\Users\ANDRLU~1\AppData\Local\Temp\ccpruXkc.s 			page 42


 2365               		.section	.text._ZL11find_volumePPKcPP5FATFSh,"ax",@progbits
 2367               	_ZL11find_volumePPKcPP5FATFSh:
 2368 0000 2F92      		push r2
 2369 0002 3F92      		push r3
 2370 0004 4F92      		push r4
 2371 0006 5F92      		push r5
 2372 0008 6F92      		push r6
 2373 000a 7F92      		push r7
 2374 000c 8F92      		push r8
 2375 000e 9F92      		push r9
 2376 0010 AF92      		push r10
 2377 0012 BF92      		push r11
 2378 0014 CF92      		push r12
 2379 0016 DF92      		push r13
 2380 0018 EF92      		push r14
 2381 001a FF92      		push r15
 2382 001c 0F93      		push r16
 2383 001e 1F93      		push r17
 2384 0020 CF93      		push r28
 2385 0022 DF93      		push r29
 2386 0024 CDB7      		in r28,__SP_L__
 2387 0026 DEB7      		in r29,__SP_H__
 2388 0028 E097      		sbiw r28,48
 2389 002a 0FB6      		in __tmp_reg__,__SREG__
 2390 002c F894      		cli
 2391 002e DEBF      		out __SP_H__,r29
 2392 0030 0FBE      		out __SREG__,__tmp_reg__
 2393 0032 CDBF      		out __SP_L__,r28
 2394               	/* prologue: function */
 2395               	/* frame size = 48 */
 2396               	/* stack size = 66 */
 2397               	.L__stack_usage = 66
 2398 0034 A62E      		mov r10,r22
 2399 0036 B72E      		mov r11,r23
 2400 0038 D42E      		mov r13,r20
 2401 003a D501      		movw r26,r10
 2402 003c 1D92      		st X+,__zero_reg__
 2403 003e 1C92      		st X,__zero_reg__
 2404 0040 0E94 0000 		call _ZL12get_ldnumberPPKc
 2405 0044 E82E      		mov r14,r24
 2406 0046 F92E      		mov r15,r25
 2407 0048 FF20      		tst r15
 2408 004a 04F4      		brge .+2
 2409 004c 00C0      		rjmp .L172
 2410 004e F701      		movw r30,r14
 2411 0050 EE0F      		lsl r30
 2412 0052 FF1F      		rol r31
 2413 0054 E050      		subi r30,lo8(-(_ZL5FatFs))
 2414 0056 F040      		sbci r31,hi8(-(_ZL5FatFs))
 2415 0058 0081      		ld r16,Z
 2416 005a 1181      		ldd r17,Z+1
 2417 005c 0115      		cp r16,__zero_reg__
 2418 005e 1105      		cpc r17,__zero_reg__
 2419 0060 01F4      		brne .+2
 2420 0062 00C0      		rjmp .L173
 2421 0064 F501      		movw r30,r10
 2422 0066 1183      		std Z+1,r17
GAS LISTING C:\Users\ANDRLU~1\AppData\Local\Temp\ccpruXkc.s 			page 43


 2423 0068 0083      		st Z,r16
 2424 006a E894      		clt
 2425 006c D0F8      		bld r13,0
 2426 006e D801      		movw r26,r16
 2427 0070 8C91      		ld r24,X
 2428 0072 8823      		tst r24
 2429 0074 01F0      		breq .L151
 2430 0076 1196      		adiw r26,1
 2431 0078 8C91      		ld r24,X
 2432 007a 0E94 0000 		call disk_status
 2433 007e 80FD      		sbrc r24,0
 2434 0080 00C0      		rjmp .L151
 2435 0082 A12C      		mov r10,__zero_reg__
 2436 0084 B12C      		mov r11,__zero_reg__
 2437 0086 DD20      		tst r13
 2438 0088 01F4      		brne .+2
 2439 008a 00C0      		rjmp .L149
 2440 008c A12C      		mov r10,__zero_reg__
 2441 008e B12C      		mov r11,__zero_reg__
 2442 0090 82FF      		sbrs r24,2
 2443 0092 00C0      		rjmp .L149
 2444 0094 0F2E      		mov __tmp_reg__,r31
 2445 0096 FAE0      		ldi r31,lo8(10)
 2446 0098 AF2E      		mov r10,r31
 2447 009a B12C      		mov r11,__zero_reg__
 2448 009c F02D      		mov r31,__tmp_reg__
 2449 009e 00C0      		rjmp .L149
 2450               	.L151:
 2451 00a0 F801      		movw r30,r16
 2452 00a2 1082      		st Z,__zero_reg__
 2453 00a4 E182      		std Z+1,r14
 2454 00a6 8E2D      		mov r24,r14
 2455 00a8 0E94 0000 		call disk_initialize
 2456 00ac 0F2E      		mov __tmp_reg__,r31
 2457 00ae F3E0      		ldi r31,lo8(3)
 2458 00b0 AF2E      		mov r10,r31
 2459 00b2 B12C      		mov r11,__zero_reg__
 2460 00b4 F02D      		mov r31,__tmp_reg__
 2461 00b6 80FD      		sbrc r24,0
 2462 00b8 00C0      		rjmp .L149
 2463 00ba DD20      		tst r13
 2464 00bc 01F0      		breq .L152
 2465 00be 0F2E      		mov __tmp_reg__,r31
 2466 00c0 FAE0      		ldi r31,lo8(10)
 2467 00c2 AF2E      		mov r10,r31
 2468 00c4 B12C      		mov r11,__zero_reg__
 2469 00c6 F02D      		mov r31,__tmp_reg__
 2470 00c8 82FD      		sbrc r24,2
 2471 00ca 00C0      		rjmp .L149
 2472               	.L152:
 2473 00cc 40E0      		ldi r20,0
 2474 00ce 50E0      		ldi r21,0
 2475 00d0 BA01      		movw r22,r20
 2476 00d2 C801      		movw r24,r16
 2477 00d4 0E94 0000 		call _ZL8check_fsP5FATFSm
 2478 00d8 8230      		cpi r24,lo8(2)
 2479 00da 01F0      		breq .L210
GAS LISTING C:\Users\ANDRLU~1\AppData\Local\Temp\ccpruXkc.s 			page 44


 2480 00dc 1DA2      		std Y+37,__zero_reg__
 2481 00de 1EA2      		std Y+38,__zero_reg__
 2482 00e0 1FA2      		std Y+39,__zero_reg__
 2483 00e2 18A6      		std Y+40,__zero_reg__
 2484               	.L153:
 2485 00e4 8430      		cpi r24,lo8(4)
 2486 00e6 01F4      		brne .+2
 2487 00e8 00C0      		rjmp .L181
 2488 00ea 0F2E      		mov __tmp_reg__,r31
 2489 00ec FDE0      		ldi r31,lo8(13)
 2490 00ee AF2E      		mov r10,r31
 2491 00f0 B12C      		mov r11,__zero_reg__
 2492 00f2 F02D      		mov r31,__tmp_reg__
 2493 00f4 8230      		cpi r24,lo8(2)
 2494 00f6 00F0      		brlo .+2
 2495 00f8 00C0      		rjmp .L149
 2496 00fa 00C0      		rjmp .L171
 2497               	.L210:
 2498 00fc 6801      		movw r12,r16
 2499 00fe FFE0      		ldi r31,15
 2500 0100 CF1A      		sub r12,r31
 2501 0102 FEEF      		ldi r31,-2
 2502 0104 DF0A      		sbc r13,r31
 2503 0106 9E01      		movw r18,r28
 2504 0108 2F5F      		subi r18,-1
 2505 010a 3F4F      		sbci r19,-1
 2506 010c 4901      		movw r8,r18
 2507 010e 5801      		movw r10,r16
 2508 0110 3FEC      		ldi r19,-49
 2509 0112 A31A      		sub r10,r19
 2510 0114 3DEF      		ldi r19,-3
 2511 0116 B30A      		sbc r11,r19
 2512 0118 7401      		movw r14,r8
 2513 011a 412C      		mov r4,__zero_reg__
 2514 011c 512C      		mov r5,__zero_reg__
 2515 011e 612C      		mov r6,__zero_reg__
 2516 0120 712C      		mov r7,__zero_reg__
 2517 0122 00C0      		rjmp .L155
 2518               	.L179:
 2519 0124 642D      		mov r22,r4
 2520 0126 752D      		mov r23,r5
 2521 0128 862D      		mov r24,r6
 2522 012a 972D      		mov r25,r7
 2523               	.L154:
 2524 012c F701      		movw r30,r14
 2525 012e 6083      		st Z,r22
 2526 0130 7183      		std Z+1,r23
 2527 0132 8283      		std Z+2,r24
 2528 0134 9383      		std Z+3,r25
 2529 0136 F4E0      		ldi r31,4
 2530 0138 EF0E      		add r14,r31
 2531 013a F11C      		adc r15,__zero_reg__
 2532 013c 20E1      		ldi r18,16
 2533 013e C20E      		add r12,r18
 2534 0140 D11C      		adc r13,__zero_reg__
 2535 0142 AC14      		cp r10,r12
 2536 0144 BD04      		cpc r11,r13
GAS LISTING C:\Users\ANDRLU~1\AppData\Local\Temp\ccpruXkc.s 			page 45


 2537 0146 01F0      		breq .L211
 2538               	.L155:
 2539 0148 D601      		movw r26,r12
 2540 014a 8C91      		ld r24,X
 2541 014c 8823      		tst r24
 2542 014e 01F0      		breq .L179
 2543 0150 C601      		movw r24,r12
 2544 0152 0496      		adiw r24,4
 2545 0154 0E94 0000 		call _ZL8ld_dwordPKh
 2546 0158 00C0      		rjmp .L154
 2547               	.L211:
 2548 015a 5401      		movw r10,r8
 2549 015c 30E1      		ldi r19,16
 2550 015e A30E      		add r10,r19
 2551 0160 B11C      		adc r11,__zero_reg__
 2552 0162 0F2E      		mov __tmp_reg__,r31
 2553 0164 F3E0      		ldi r31,lo8(3)
 2554 0166 7F2E      		mov r7,r31
 2555 0168 F02D      		mov r31,__tmp_reg__
 2556 016a 00C0      		rjmp .L158
 2557               	.L180:
 2558 016c 872D      		mov r24,r7
 2559               	.L156:
 2560 016e B4E0      		ldi r27,4
 2561 0170 8B0E      		add r8,r27
 2562 0172 911C      		adc r9,__zero_reg__
 2563 0174 8A14      		cp r8,r10
 2564 0176 9B04      		cpc r9,r11
 2565 0178 01F4      		brne .+2
 2566 017a 00C0      		rjmp .L212
 2567               	.L158:
 2568 017c D401      		movw r26,r8
 2569 017e CD90      		ld r12,X+
 2570 0180 DD90      		ld r13,X+
 2571 0182 ED90      		ld r14,X+
 2572 0184 FC90      		ld r15,X
 2573 0186 C114      		cp r12,__zero_reg__
 2574 0188 D104      		cpc r13,__zero_reg__
 2575 018a E104      		cpc r14,__zero_reg__
 2576 018c F104      		cpc r15,__zero_reg__
 2577 018e 01F0      		breq .L180
 2578 0190 B701      		movw r22,r14
 2579 0192 A601      		movw r20,r12
 2580 0194 C801      		movw r24,r16
 2581 0196 0E94 0000 		call _ZL8check_fsP5FATFSm
 2582 019a 8230      		cpi r24,lo8(2)
 2583 019c 00F4      		brsh .L156
 2584 019e CDA2      		std Y+37,r12
 2585 01a0 DEA2      		std Y+38,r13
 2586 01a2 EFA2      		std Y+39,r14
 2587 01a4 F8A6      		std Y+40,r15
 2588 01a6 8430      		cpi r24,lo8(4)
 2589 01a8 01F4      		brne .+2
 2590 01aa 00C0      		rjmp .L213
 2591               	.L171:
 2592 01ac F801      		movw r30,r16
 2593 01ae 93AD      		ldd r25,Z+59
GAS LISTING C:\Users\ANDRLU~1\AppData\Local\Temp\ccpruXkc.s 			page 46


 2594 01b0 82AD      		ldd r24,Z+58
 2595 01b2 0F2E      		mov __tmp_reg__,r31
 2596 01b4 FDE0      		ldi r31,lo8(13)
 2597 01b6 AF2E      		mov r10,r31
 2598 01b8 B12C      		mov r11,__zero_reg__
 2599 01ba F02D      		mov r31,__tmp_reg__
 2600 01bc 8115      		cp r24,__zero_reg__
 2601 01be 9240      		sbci r25,2
 2602 01c0 01F0      		breq .+2
 2603 01c2 00C0      		rjmp .L149
 2604 01c4 F801      		movw r30,r16
 2605 01c6 EA5B      		subi r30,-70
 2606 01c8 FF4F      		sbci r31,-1
 2607 01ca 9081      		ld r25,Z
 2608 01cc 3197      		sbiw r30,1
 2609 01ce 8081      		ld r24,Z
 2610 01d0 2C01      		movw r4,r24
 2611 01d2 612C      		mov r6,__zero_reg__
 2612 01d4 712C      		mov r7,__zero_reg__
 2613 01d6 892B      		or r24,r25
 2614 01d8 01F4      		brne .L159
 2615 01da C801      		movw r24,r16
 2616 01dc 8D5A      		subi r24,-83
 2617 01de 9F4F      		sbci r25,-1
 2618 01e0 0E94 0000 		call _ZL8ld_dwordPKh
 2619 01e4 462E      		mov r4,r22
 2620 01e6 572E      		mov r5,r23
 2621 01e8 682E      		mov r6,r24
 2622 01ea 792E      		mov r7,r25
 2623               	.L159:
 2624 01ec D801      		movw r26,r16
 2625 01ee 5796      		adiw r26,23
 2626 01f0 4D92      		st X+,r4
 2627 01f2 5D92      		st X+,r5
 2628 01f4 6D92      		st X+,r6
 2629 01f6 7C92      		st X,r7
 2630 01f8 5A97      		sbiw r26,23+3
 2631 01fa DF96      		adiw r26,63
 2632 01fc 9C90      		ld r9,X
 2633 01fe DF97      		sbiw r26,63
 2634 0200 1296      		adiw r26,2
 2635 0202 9C92      		st X,r9
 2636 0204 1297      		sbiw r26,2
 2637 0206 8FEF      		ldi r24,lo8(-1)
 2638 0208 890D      		add r24,r9
 2639 020a 0F2E      		mov __tmp_reg__,r31
 2640 020c FDE0      		ldi r31,lo8(13)
 2641 020e AF2E      		mov r10,r31
 2642 0210 B12C      		mov r11,__zero_reg__
 2643 0212 F02D      		mov r31,__tmp_reg__
 2644 0214 8230      		cpi r24,lo8(2)
 2645 0216 00F0      		brlo .+2
 2646 0218 00C0      		rjmp .L149
 2647 021a DC96      		adiw r26,60
 2648 021c 8C90      		ld r8,X
 2649 021e DC97      		sbiw r26,60
 2650 0220 882D      		mov r24,r8
GAS LISTING C:\Users\ANDRLU~1\AppData\Local\Temp\ccpruXkc.s 			page 47


 2651 0222 90E0      		ldi r25,0
 2652 0224 1A96      		adiw r26,9+1
 2653 0226 9C93      		st X,r25
 2654 0228 8E93      		st -X,r24
 2655 022a 1997      		sbiw r26,9
 2656 022c 0F2E      		mov __tmp_reg__,r31
 2657 022e FDE0      		ldi r31,lo8(13)
 2658 0230 AF2E      		mov r10,r31
 2659 0232 B12C      		mov r11,__zero_reg__
 2660 0234 F02D      		mov r31,__tmp_reg__
 2661 0236 0097      		sbiw r24,0
 2662 0238 01F4      		brne .+2
 2663 023a 00C0      		rjmp .L149
 2664 023c 9C01      		movw r18,r24
 2665 023e 2150      		subi r18,1
 2666 0240 3109      		sbc r19,__zero_reg__
 2667 0242 8223      		and r24,r18
 2668 0244 9323      		and r25,r19
 2669 0246 0F2E      		mov __tmp_reg__,r31
 2670 0248 FDE0      		ldi r31,lo8(13)
 2671 024a AF2E      		mov r10,r31
 2672 024c B12C      		mov r11,__zero_reg__
 2673 024e F02D      		mov r31,__tmp_reg__
 2674 0250 892B      		or r24,r25
 2675 0252 01F0      		breq .+2
 2676 0254 00C0      		rjmp .L149
 2677 0256 F801      		movw r30,r16
 2678 0258 EF5B      		subi r30,-65
 2679 025a FF4F      		sbci r31,-1
 2680 025c 9081      		ld r25,Z
 2681 025e 3197      		sbiw r30,1
 2682 0260 8081      		ld r24,Z
 2683 0262 392E      		mov r3,r25
 2684 0264 282E      		mov r2,r24
 2685 0266 F801      		movw r30,r16
 2686 0268 3086      		std Z+8,r3
 2687 026a 2782      		std Z+7,r2
 2688 026c 5101      		movw r10,r2
 2689 026e FFE0      		ldi r31,15
 2690 0270 AF22      		and r10,r31
 2691 0272 BB24      		clr r11
 2692 0274 A114      		cp r10,__zero_reg__
 2693 0276 B104      		cpc r11,__zero_reg__
 2694 0278 01F0      		breq .+2
 2695 027a 00C0      		rjmp .L187
 2696 027c F801      		movw r30,r16
 2697 027e ED5B      		subi r30,-67
 2698 0280 FF4F      		sbci r31,-1
 2699 0282 9081      		ld r25,Z
 2700 0284 3197      		sbiw r30,1
 2701 0286 8081      		ld r24,Z
 2702 0288 6C01      		movw r12,r24
 2703 028a E12C      		mov r14,__zero_reg__
 2704 028c F12C      		mov r15,__zero_reg__
 2705 028e 892B      		or r24,r25
 2706 0290 01F4      		brne .L160
 2707 0292 C801      		movw r24,r16
GAS LISTING C:\Users\ANDRLU~1\AppData\Local\Temp\ccpruXkc.s 			page 48


 2708 0294 815B      		subi r24,-79
 2709 0296 9F4F      		sbci r25,-1
 2710 0298 0E94 0000 		call _ZL8ld_dwordPKh
 2711 029c C62E      		mov r12,r22
 2712 029e D72E      		mov r13,r23
 2713 02a0 E82E      		mov r14,r24
 2714 02a2 F92E      		mov r15,r25
 2715               	.L160:
 2716 02a4 D801      		movw r26,r16
 2717 02a6 DE96      		adiw r26,62
 2718 02a8 8C91      		ld r24,X
 2719 02aa DE97      		sbiw r26,62
 2720 02ac DD96      		adiw r26,61
 2721 02ae EC91      		ld r30,X
 2722 02b0 F82F      		mov r31,r24
 2723 02b2 3097      		sbiw r30,0
 2724 02b4 01F4      		brne .+2
 2725 02b6 00C0      		rjmp .L188
 2726 02b8 A92D      		mov r26,r9
 2727 02ba B0E0      		ldi r27,0
 2728 02bc A301      		movw r20,r6
 2729 02be 9201      		movw r18,r4
 2730 02c0 0E94 0000 		call __muluhisi3
 2731 02c4 69A3      		std Y+33,r22
 2732 02c6 7AA3      		std Y+34,r23
 2733 02c8 8BA3      		std Y+35,r24
 2734 02ca 9CA3      		std Y+36,r25
 2735 02cc 9F01      		movw r18,r30
 2736 02ce 40E0      		ldi r20,0
 2737 02d0 50E0      		ldi r21,0
 2738 02d2 298F      		std Y+25,r18
 2739 02d4 3A8F      		std Y+26,r19
 2740 02d6 4B8F      		std Y+27,r20
 2741 02d8 5C8F      		std Y+28,r21
 2742 02da C101      		movw r24,r2
 2743 02dc 9295      		swap r25
 2744 02de 8295      		swap r24
 2745 02e0 8F70      		andi r24,0x0f
 2746 02e2 8927      		eor r24,r25
 2747 02e4 9F70      		andi r25,0x0f
 2748 02e6 8927      		eor r24,r25
 2749 02e8 280F      		add r18,r24
 2750 02ea 391F      		adc r19,r25
 2751 02ec 411D      		adc r20,__zero_reg__
 2752 02ee 511D      		adc r21,__zero_reg__
 2753 02f0 DA01      		movw r26,r20
 2754 02f2 C901      		movw r24,r18
 2755 02f4 29A1      		ldd r18,Y+33
 2756 02f6 3AA1      		ldd r19,Y+34
 2757 02f8 4BA1      		ldd r20,Y+35
 2758 02fa 5CA1      		ldd r21,Y+36
 2759 02fc 280F      		add r18,r24
 2760 02fe 391F      		adc r19,r25
 2761 0300 4A1F      		adc r20,r26
 2762 0302 5B1F      		adc r21,r27
 2763 0304 2D8B      		std Y+21,r18
 2764 0306 3E8B      		std Y+22,r19
GAS LISTING C:\Users\ANDRLU~1\AppData\Local\Temp\ccpruXkc.s 			page 49


 2765 0308 4F8B      		std Y+23,r20
 2766 030a 588F      		std Y+24,r21
 2767 030c C216      		cp r12,r18
 2768 030e D306      		cpc r13,r19
 2769 0310 E406      		cpc r14,r20
 2770 0312 F506      		cpc r15,r21
 2771 0314 00F4      		brsh .+2
 2772 0316 00C0      		rjmp .L189
 2773 0318 D701      		movw r26,r14
 2774 031a C601      		movw r24,r12
 2775 031c 821B      		sub r24,r18
 2776 031e 930B      		sbc r25,r19
 2777 0320 A40B      		sbc r26,r20
 2778 0322 B50B      		sbc r27,r21
 2779 0324 898B      		std Y+17,r24
 2780 0326 9A8B      		std Y+18,r25
 2781 0328 AB8B      		std Y+19,r26
 2782 032a BC8B      		std Y+20,r27
 2783 032c C82C      		mov r12,r8
 2784 032e D12C      		mov r13,__zero_reg__
 2785 0330 E12C      		mov r14,__zero_reg__
 2786 0332 F12C      		mov r15,__zero_reg__
 2787 0334 BC01      		movw r22,r24
 2788 0336 CD01      		movw r24,r26
 2789 0338 A701      		movw r20,r14
 2790 033a 9601      		movw r18,r12
 2791 033c 0E94 0000 		call __udivmodsi4
 2792 0340 2DA7      		std Y+45,r18
 2793 0342 3EA7      		std Y+46,r19
 2794 0344 4FA7      		std Y+47,r20
 2795 0346 58AB      		std Y+48,r21
 2796 0348 29A7      		std Y+41,r18
 2797 034a 3AA7      		std Y+42,r19
 2798 034c 4BA7      		std Y+43,r20
 2799 034e 5CA7      		std Y+44,r21
 2800 0350 2989      		ldd r18,Y+17
 2801 0352 3A89      		ldd r19,Y+18
 2802 0354 4B89      		ldd r20,Y+19
 2803 0356 5C89      		ldd r21,Y+20
 2804 0358 2C15      		cp r18,r12
 2805 035a 3D05      		cpc r19,r13
 2806 035c 4E05      		cpc r20,r14
 2807 035e 5F05      		cpc r21,r15
 2808 0360 00F4      		brsh .+2
 2809 0362 00C0      		rjmp .L190
 2810 0364 89A5      		ldd r24,Y+41
 2811 0366 9AA5      		ldd r25,Y+42
 2812 0368 ABA5      		ldd r26,Y+43
 2813 036a BCA5      		ldd r27,Y+44
 2814 036c 863F      		cpi r24,-10
 2815 036e EFEF      		ldi r30,-1
 2816 0370 9E07      		cpc r25,r30
 2817 0372 AE07      		cpc r26,r30
 2818 0374 EFE0      		ldi r30,15
 2819 0376 BE07      		cpc r27,r30
 2820 0378 00F0      		brlo .+2
 2821 037a 00C0      		rjmp .L191
GAS LISTING C:\Users\ANDRLU~1\AppData\Local\Temp\ccpruXkc.s 			page 50


 2822 037c 863F      		cpi r24,-10
 2823 037e FFEF      		ldi r31,-1
 2824 0380 9F07      		cpc r25,r31
 2825 0382 A105      		cpc r26,__zero_reg__
 2826 0384 B105      		cpc r27,__zero_reg__
 2827 0386 00F0      		brlo .+2
 2828 0388 00C0      		rjmp .L161
 2829 038a 863F      		cpi r24,-10
 2830 038c 9F40      		sbci r25,15
 2831 038e A105      		cpc r26,__zero_reg__
 2832 0390 B105      		cpc r27,__zero_reg__
 2833 0392 00F4      		brsh .+2
 2834 0394 00C0      		rjmp .L162
 2835 0396 2DA5      		ldd r18,Y+45
 2836 0398 3EA5      		ldd r19,Y+46
 2837 039a 4FA5      		ldd r20,Y+47
 2838 039c 58A9      		ldd r21,Y+48
 2839 039e 2E5F      		subi r18,-2
 2840 03a0 3F4F      		sbci r19,-1
 2841 03a2 4F4F      		sbci r20,-1
 2842 03a4 5F4F      		sbci r21,-1
 2843 03a6 298B      		std Y+17,r18
 2844 03a8 3A8B      		std Y+18,r19
 2845 03aa 4B8B      		std Y+19,r20
 2846 03ac 5C8B      		std Y+20,r21
 2847 03ae D801      		movw r26,r16
 2848 03b0 5396      		adiw r26,19
 2849 03b2 2D93      		st X+,r18
 2850 03b4 3D93      		st X+,r19
 2851 03b6 4D93      		st X+,r20
 2852 03b8 5C93      		st X,r21
 2853 03ba 5697      		sbiw r26,19+3
 2854 03bc CDA0      		ldd r12,Y+37
 2855 03be DEA0      		ldd r13,Y+38
 2856 03c0 EFA0      		ldd r14,Y+39
 2857 03c2 F8A4      		ldd r15,Y+40
 2858 03c4 5B96      		adiw r26,27
 2859 03c6 CD92      		st X+,r12
 2860 03c8 DD92      		st X+,r13
 2861 03ca ED92      		st X+,r14
 2862 03cc FC92      		st X,r15
 2863 03ce 5E97      		sbiw r26,27+3
 2864 03d0 498D      		ldd r20,Y+25
 2865 03d2 5A8D      		ldd r21,Y+26
 2866 03d4 6B8D      		ldd r22,Y+27
 2867 03d6 7C8D      		ldd r23,Y+28
 2868 03d8 4C0D      		add r20,r12
 2869 03da 5D1D      		adc r21,r13
 2870 03dc 6E1D      		adc r22,r14
 2871 03de 7F1D      		adc r23,r15
 2872 03e0 F801      		movw r30,r16
 2873 03e2 478F      		std Z+31,r20
 2874 03e4 50A3      		std Z+32,r21
 2875 03e6 61A3      		std Z+33,r22
 2876 03e8 72A3      		std Z+34,r23
 2877 03ea 8D89      		ldd r24,Y+21
 2878 03ec 9E89      		ldd r25,Y+22
GAS LISTING C:\Users\ANDRLU~1\AppData\Local\Temp\ccpruXkc.s 			page 51


 2879 03ee AF89      		ldd r26,Y+23
 2880 03f0 B88D      		ldd r27,Y+24
 2881 03f2 C80E      		add r12,r24
 2882 03f4 D91E      		adc r13,r25
 2883 03f6 EA1E      		adc r14,r26
 2884 03f8 FB1E      		adc r15,r27
 2885 03fa C7A2      		std Z+39,r12
 2886 03fc D0A6      		std Z+40,r13
 2887 03fe E1A6      		std Z+41,r14
 2888 0400 F2A6      		std Z+42,r15
 2889 0402 2328      		or r2,r3
 2890 0404 01F4      		brne .+2
 2891 0406 00C0      		rjmp .L214
 2892 0408 C9A0      		ldd r12,Y+33
 2893 040a DAA0      		ldd r13,Y+34
 2894 040c EBA0      		ldd r14,Y+35
 2895 040e FCA0      		ldd r15,Y+36
 2896 0410 4C0D      		add r20,r12
 2897 0412 5D1D      		adc r21,r13
 2898 0414 6E1D      		adc r22,r14
 2899 0416 7F1D      		adc r23,r15
 2900 0418 8989      		ldd r24,Y+17
 2901 041a 9A89      		ldd r25,Y+18
 2902 041c AB89      		ldd r26,Y+19
 2903 041e BC89      		ldd r27,Y+20
 2904 0420 880F      		lsl r24
 2905 0422 991F      		rol r25
 2906 0424 AA1F      		rol r26
 2907 0426 BB1F      		rol r27
 2908 0428 22E0      		ldi r18,lo8(2)
 2909               	.L165:
 2910 042a F801      		movw r30,r16
 2911 042c 43A3      		std Z+35,r20
 2912 042e 54A3      		std Z+36,r21
 2913 0430 65A3      		std Z+37,r22
 2914 0432 76A3      		std Z+38,r23
 2915 0434 8150      		subi r24,1
 2916 0436 9E4F      		sbci r25,-2
 2917 0438 AF4F      		sbci r26,-1
 2918 043a BF4F      		sbci r27,-1
 2919 043c 072E      		mov r0,r23
 2920 043e 79E0      		ldi r23,9
 2921               		1:
 2922 0440 B695      		lsr r27
 2923 0442 A795      		ror r26
 2924 0444 9795      		ror r25
 2925 0446 8795      		ror r24
 2926 0448 7A95      		dec r23
 2927 044a 01F4      		brne 1b
 2928 044c 702D      		mov r23,r0
 2929 044e 4816      		cp r4,r24
 2930 0450 5906      		cpc r5,r25
 2931 0452 6A06      		cpc r6,r26
 2932 0454 7B06      		cpc r7,r27
 2933 0456 00F4      		brsh .+2
 2934 0458 00C0      		rjmp .L215
 2935 045a 8FEF      		ldi r24,lo8(-1)
GAS LISTING C:\Users\ANDRLU~1\AppData\Local\Temp\ccpruXkc.s 			page 52


 2936 045c 9FEF      		ldi r25,lo8(-1)
 2937 045e DC01      		movw r26,r24
 2938 0460 F801      		movw r30,r16
 2939 0462 8787      		std Z+15,r24
 2940 0464 908B      		std Z+16,r25
 2941 0466 A18B      		std Z+17,r26
 2942 0468 B28B      		std Z+18,r27
 2943 046a 8387      		std Z+11,r24
 2944 046c 9487      		std Z+12,r25
 2945 046e A587      		std Z+13,r26
 2946 0470 B687      		std Z+14,r27
 2947 0472 80E8      		ldi r24,lo8(-128)
 2948 0474 8483      		std Z+4,r24
 2949               	.L166:
 2950 0476 D801      		movw r26,r16
 2951 0478 2C93      		st X,r18
 2952 047a 8091 0000 		lds r24,_ZL4Fsid
 2953 047e 9091 0000 		lds r25,_ZL4Fsid+1
 2954 0482 0196      		adiw r24,1
 2955 0484 9093 0000 		sts _ZL4Fsid+1,r25
 2956 0488 8093 0000 		sts _ZL4Fsid,r24
 2957 048c 1696      		adiw r26,5+1
 2958 048e 9C93      		st X,r25
 2959 0490 8E93      		st -X,r24
 2960 0492 1597      		sbiw r26,5
 2961 0494 00C0      		rjmp .L149
 2962               	.L212:
 2963 0496 CDA2      		std Y+37,r12
 2964 0498 DEA2      		std Y+38,r13
 2965 049a EFA2      		std Y+39,r14
 2966 049c F8A6      		std Y+40,r15
 2967 049e 00C0      		rjmp .L153
 2968               	.L172:
 2969 04a0 0F2E      		mov __tmp_reg__,r31
 2970 04a2 FBE0      		ldi r31,lo8(11)
 2971 04a4 AF2E      		mov r10,r31
 2972 04a6 B12C      		mov r11,__zero_reg__
 2973 04a8 F02D      		mov r31,__tmp_reg__
 2974               	.L149:
 2975 04aa C501      		movw r24,r10
 2976               	/* epilogue start */
 2977 04ac E096      		adiw r28,48
 2978 04ae 0FB6      		in __tmp_reg__,__SREG__
 2979 04b0 F894      		cli
 2980 04b2 DEBF      		out __SP_H__,r29
 2981 04b4 0FBE      		out __SREG__,__tmp_reg__
 2982 04b6 CDBF      		out __SP_L__,r28
 2983 04b8 DF91      		pop r29
 2984 04ba CF91      		pop r28
 2985 04bc 1F91      		pop r17
 2986 04be 0F91      		pop r16
 2987 04c0 FF90      		pop r15
 2988 04c2 EF90      		pop r14
 2989 04c4 DF90      		pop r13
 2990 04c6 CF90      		pop r12
 2991 04c8 BF90      		pop r11
 2992 04ca AF90      		pop r10
GAS LISTING C:\Users\ANDRLU~1\AppData\Local\Temp\ccpruXkc.s 			page 53


 2993 04cc 9F90      		pop r9
 2994 04ce 8F90      		pop r8
 2995 04d0 7F90      		pop r7
 2996 04d2 6F90      		pop r6
 2997 04d4 5F90      		pop r5
 2998 04d6 4F90      		pop r4
 2999 04d8 3F90      		pop r3
 3000 04da 2F90      		pop r2
 3001 04dc 0895      		ret
 3002               	.L173:
 3003 04de 0F2E      		mov __tmp_reg__,r31
 3004 04e0 FCE0      		ldi r31,lo8(12)
 3005 04e2 AF2E      		mov r10,r31
 3006 04e4 B12C      		mov r11,__zero_reg__
 3007 04e6 F02D      		mov r31,__tmp_reg__
 3008 04e8 00C0      		rjmp .L149
 3009               	.L181:
 3010 04ea AA24      		clr r10
 3011 04ec A394      		inc r10
 3012 04ee B12C      		mov r11,__zero_reg__
 3013 04f0 00C0      		rjmp .L149
 3014               	.L187:
 3015 04f2 0F2E      		mov __tmp_reg__,r31
 3016 04f4 FDE0      		ldi r31,lo8(13)
 3017 04f6 AF2E      		mov r10,r31
 3018 04f8 B12C      		mov r11,__zero_reg__
 3019 04fa F02D      		mov r31,__tmp_reg__
 3020 04fc 00C0      		rjmp .L149
 3021               	.L188:
 3022 04fe 0F2E      		mov __tmp_reg__,r31
 3023 0500 FDE0      		ldi r31,lo8(13)
 3024 0502 AF2E      		mov r10,r31
 3025 0504 B12C      		mov r11,__zero_reg__
 3026 0506 F02D      		mov r31,__tmp_reg__
 3027 0508 00C0      		rjmp .L149
 3028               	.L189:
 3029 050a 0F2E      		mov __tmp_reg__,r31
 3030 050c FDE0      		ldi r31,lo8(13)
 3031 050e AF2E      		mov r10,r31
 3032 0510 B12C      		mov r11,__zero_reg__
 3033 0512 F02D      		mov r31,__tmp_reg__
 3034 0514 00C0      		rjmp .L149
 3035               	.L190:
 3036 0516 0F2E      		mov __tmp_reg__,r31
 3037 0518 FDE0      		ldi r31,lo8(13)
 3038 051a AF2E      		mov r10,r31
 3039 051c B12C      		mov r11,__zero_reg__
 3040 051e F02D      		mov r31,__tmp_reg__
 3041 0520 00C0      		rjmp .L149
 3042               	.L191:
 3043 0522 0F2E      		mov __tmp_reg__,r31
 3044 0524 FDE0      		ldi r31,lo8(13)
 3045 0526 AF2E      		mov r10,r31
 3046 0528 B12C      		mov r11,__zero_reg__
 3047 052a F02D      		mov r31,__tmp_reg__
 3048 052c 00C0      		rjmp .L149
 3049               	.L217:
GAS LISTING C:\Users\ANDRLU~1\AppData\Local\Temp\ccpruXkc.s 			page 54


 3050 052e 0F2E      		mov __tmp_reg__,r31
 3051 0530 FDE0      		ldi r31,lo8(13)
 3052 0532 AF2E      		mov r10,r31
 3053 0534 B12C      		mov r11,__zero_reg__
 3054 0536 F02D      		mov r31,__tmp_reg__
 3055 0538 00C0      		rjmp .L149
 3056               	.L215:
 3057 053a 0F2E      		mov __tmp_reg__,r31
 3058 053c FDE0      		ldi r31,lo8(13)
 3059 053e AF2E      		mov r10,r31
 3060 0540 B12C      		mov r11,__zero_reg__
 3061 0542 F02D      		mov r31,__tmp_reg__
 3062 0544 00C0      		rjmp .L149
 3063               	.L198:
 3064 0546 0F2E      		mov __tmp_reg__,r31
 3065 0548 FDE0      		ldi r31,lo8(13)
 3066 054a AF2E      		mov r10,r31
 3067 054c B12C      		mov r11,__zero_reg__
 3068 054e F02D      		mov r31,__tmp_reg__
 3069 0550 00C0      		rjmp .L149
 3070               	.L216:
 3071 0552 0F2E      		mov __tmp_reg__,r31
 3072 0554 FDE0      		ldi r31,lo8(13)
 3073 0556 AF2E      		mov r10,r31
 3074 0558 B12C      		mov r11,__zero_reg__
 3075 055a F02D      		mov r31,__tmp_reg__
 3076 055c 00C0      		rjmp .L149
 3077               	.L214:
 3078 055e 0F2E      		mov __tmp_reg__,r31
 3079 0560 FDE0      		ldi r31,lo8(13)
 3080 0562 AF2E      		mov r10,r31
 3081 0564 B12C      		mov r11,__zero_reg__
 3082 0566 F02D      		mov r31,__tmp_reg__
 3083 0568 00C0      		rjmp .L149
 3084               	.L213:
 3085 056a AA24      		clr r10
 3086 056c A394      		inc r10
 3087 056e B12C      		mov r11,__zero_reg__
 3088 0570 00C0      		rjmp .L149
 3089               	.L162:
 3090 0572 2DA5      		ldd r18,Y+45
 3091 0574 3EA5      		ldd r19,Y+46
 3092 0576 4FA5      		ldd r20,Y+47
 3093 0578 58A9      		ldd r21,Y+48
 3094 057a 2E5F      		subi r18,-2
 3095 057c 3F4F      		sbci r19,-1
 3096 057e 4F4F      		sbci r20,-1
 3097 0580 5F4F      		sbci r21,-1
 3098 0582 298B      		std Y+17,r18
 3099 0584 3A8B      		std Y+18,r19
 3100 0586 4B8B      		std Y+19,r20
 3101 0588 5C8B      		std Y+20,r21
 3102 058a D801      		movw r26,r16
 3103 058c 5396      		adiw r26,19
 3104 058e 2D93      		st X+,r18
 3105 0590 3D93      		st X+,r19
 3106 0592 4D93      		st X+,r20
GAS LISTING C:\Users\ANDRLU~1\AppData\Local\Temp\ccpruXkc.s 			page 55


 3107 0594 5C93      		st X,r21
 3108 0596 5697      		sbiw r26,19+3
 3109 0598 CDA0      		ldd r12,Y+37
 3110 059a DEA0      		ldd r13,Y+38
 3111 059c EFA0      		ldd r14,Y+39
 3112 059e F8A4      		ldd r15,Y+40
 3113 05a0 5B96      		adiw r26,27
 3114 05a2 CD92      		st X+,r12
 3115 05a4 DD92      		st X+,r13
 3116 05a6 ED92      		st X+,r14
 3117 05a8 FC92      		st X,r15
 3118 05aa 5E97      		sbiw r26,27+3
 3119 05ac 898D      		ldd r24,Y+25
 3120 05ae 9A8D      		ldd r25,Y+26
 3121 05b0 AB8D      		ldd r26,Y+27
 3122 05b2 BC8D      		ldd r27,Y+28
 3123 05b4 8C0D      		add r24,r12
 3124 05b6 9D1D      		adc r25,r13
 3125 05b8 AE1D      		adc r26,r14
 3126 05ba BF1D      		adc r27,r15
 3127 05bc F801      		movw r30,r16
 3128 05be 878F      		std Z+31,r24
 3129 05c0 90A3      		std Z+32,r25
 3130 05c2 A1A3      		std Z+33,r26
 3131 05c4 B2A3      		std Z+34,r27
 3132 05c6 4D89      		ldd r20,Y+21
 3133 05c8 5E89      		ldd r21,Y+22
 3134 05ca 6F89      		ldd r22,Y+23
 3135 05cc 788D      		ldd r23,Y+24
 3136 05ce 4C0D      		add r20,r12
 3137 05d0 5D1D      		adc r21,r13
 3138 05d2 6E1D      		adc r22,r14
 3139 05d4 7F1D      		adc r23,r15
 3140 05d6 47A3      		std Z+39,r20
 3141 05d8 50A7      		std Z+40,r21
 3142 05da 61A7      		std Z+41,r22
 3143 05dc 72A7      		std Z+42,r23
 3144 05de 2328      		or r2,r3
 3145 05e0 01F4      		brne .+2
 3146 05e2 00C0      		rjmp .L198
 3147 05e4 49A1      		ldd r20,Y+33
 3148 05e6 5AA1      		ldd r21,Y+34
 3149 05e8 6BA1      		ldd r22,Y+35
 3150 05ea 7CA1      		ldd r23,Y+36
 3151 05ec 480F      		add r20,r24
 3152 05ee 591F      		adc r21,r25
 3153 05f0 6A1F      		adc r22,r26
 3154 05f2 7B1F      		adc r23,r27
 3155 05f4 8989      		ldd r24,Y+17
 3156 05f6 9A89      		ldd r25,Y+18
 3157 05f8 AB89      		ldd r26,Y+19
 3158 05fa BC89      		ldd r27,Y+20
 3159 05fc 880F      		lsl r24
 3160 05fe 991F      		rol r25
 3161 0600 AA1F      		rol r26
 3162 0602 BB1F      		rol r27
 3163 0604 C988      		ldd r12,Y+17
GAS LISTING C:\Users\ANDRLU~1\AppData\Local\Temp\ccpruXkc.s 			page 56


 3164 0606 DA88      		ldd r13,Y+18
 3165 0608 EB88      		ldd r14,Y+19
 3166 060a FC88      		ldd r15,Y+20
 3167 060c 8C0D      		add r24,r12
 3168 060e 9D1D      		adc r25,r13
 3169 0610 AE1D      		adc r26,r14
 3170 0612 BF1D      		adc r27,r15
 3171 0614 B695      		lsr r27
 3172 0616 A795      		ror r26
 3173 0618 9795      		ror r25
 3174 061a 8795      		ror r24
 3175 061c 21E0      		ldi r18,1
 3176 061e C222      		and r12,r18
 3177 0620 DD24      		clr r13
 3178 0622 EE24      		clr r14
 3179 0624 FF24      		clr r15
 3180 0626 8C0D      		add r24,r12
 3181 0628 9D1D      		adc r25,r13
 3182 062a AE1D      		adc r26,r14
 3183 062c BF1D      		adc r27,r15
 3184 062e 21E0      		ldi r18,lo8(1)
 3185 0630 00C0      		rjmp .L165
 3186               	.L161:
 3187 0632 CDA4      		ldd r12,Y+45
 3188 0634 DEA4      		ldd r13,Y+46
 3189 0636 EFA4      		ldd r14,Y+47
 3190 0638 F8A8      		ldd r15,Y+48
 3191 063a 32E0      		ldi r19,2
 3192 063c C30E      		add r12,r19
 3193 063e D11C      		adc r13,__zero_reg__
 3194 0640 E11C      		adc r14,__zero_reg__
 3195 0642 F11C      		adc r15,__zero_reg__
 3196 0644 D801      		movw r26,r16
 3197 0646 5396      		adiw r26,19
 3198 0648 CD92      		st X+,r12
 3199 064a DD92      		st X+,r13
 3200 064c ED92      		st X+,r14
 3201 064e FC92      		st X,r15
 3202 0650 5697      		sbiw r26,19+3
 3203 0652 2DA1      		ldd r18,Y+37
 3204 0654 3EA1      		ldd r19,Y+38
 3205 0656 4FA1      		ldd r20,Y+39
 3206 0658 58A5      		ldd r21,Y+40
 3207 065a 5B96      		adiw r26,27
 3208 065c 2D93      		st X+,r18
 3209 065e 3D93      		st X+,r19
 3210 0660 4D93      		st X+,r20
 3211 0662 5C93      		st X,r21
 3212 0664 5E97      		sbiw r26,27+3
 3213 0666 898D      		ldd r24,Y+25
 3214 0668 9A8D      		ldd r25,Y+26
 3215 066a AB8D      		ldd r26,Y+27
 3216 066c BC8D      		ldd r27,Y+28
 3217 066e 820F      		add r24,r18
 3218 0670 931F      		adc r25,r19
 3219 0672 A41F      		adc r26,r20
 3220 0674 B51F      		adc r27,r21
GAS LISTING C:\Users\ANDRLU~1\AppData\Local\Temp\ccpruXkc.s 			page 57


 3221 0676 F801      		movw r30,r16
 3222 0678 878F      		std Z+31,r24
 3223 067a 90A3      		std Z+32,r25
 3224 067c A1A3      		std Z+33,r26
 3225 067e B2A3      		std Z+34,r27
 3226 0680 8D89      		ldd r24,Y+21
 3227 0682 9E89      		ldd r25,Y+22
 3228 0684 AF89      		ldd r26,Y+23
 3229 0686 B88D      		ldd r27,Y+24
 3230 0688 820F      		add r24,r18
 3231 068a 931F      		adc r25,r19
 3232 068c A41F      		adc r26,r20
 3233 068e B51F      		adc r27,r21
 3234 0690 87A3      		std Z+39,r24
 3235 0692 90A7      		std Z+40,r25
 3236 0694 A1A7      		std Z+41,r26
 3237 0696 B2A7      		std Z+42,r27
 3238 0698 E65A      		subi r30,-90
 3239 069a FF4F      		sbci r31,-1
 3240 069c 9081      		ld r25,Z
 3241 069e 3197      		sbiw r30,1
 3242 06a0 8081      		ld r24,Z
 3243 06a2 8229      		or r24,r2
 3244 06a4 9329      		or r25,r3
 3245 06a6 892B      		or r24,r25
 3246 06a8 01F0      		breq .+2
 3247 06aa 00C0      		rjmp .L216
 3248 06ac C801      		movw r24,r16
 3249 06ae 855A      		subi r24,-91
 3250 06b0 9F4F      		sbci r25,-1
 3251 06b2 0E94 0000 		call _ZL8ld_dwordPKh
 3252 06b6 D801      		movw r26,r16
 3253 06b8 9396      		adiw r26,35
 3254 06ba 6D93      		st X+,r22
 3255 06bc 7D93      		st X+,r23
 3256 06be 8D93      		st X+,r24
 3257 06c0 9C93      		st X,r25
 3258 06c2 9697      		sbiw r26,35+3
 3259 06c4 D701      		movw r26,r14
 3260 06c6 C601      		movw r24,r12
 3261 06c8 880F      		lsl r24
 3262 06ca 991F      		rol r25
 3263 06cc AA1F      		rol r26
 3264 06ce BB1F      		rol r27
 3265 06d0 880F      		lsl r24
 3266 06d2 991F      		rol r25
 3267 06d4 AA1F      		rol r26
 3268 06d6 BB1F      		rol r27
 3269 06d8 8150      		subi r24,1
 3270 06da 9E4F      		sbci r25,-2
 3271 06dc AF4F      		sbci r26,-1
 3272 06de BF4F      		sbci r27,-1
 3273 06e0 072E      		mov r0,r23
 3274 06e2 79E0      		ldi r23,9
 3275               		1:
 3276 06e4 B695      		lsr r27
 3277 06e6 A795      		ror r26
GAS LISTING C:\Users\ANDRLU~1\AppData\Local\Temp\ccpruXkc.s 			page 58


 3278 06e8 9795      		ror r25
 3279 06ea 8795      		ror r24
 3280 06ec 7A95      		dec r23
 3281 06ee 01F4      		brne 1b
 3282 06f0 702D      		mov r23,r0
 3283 06f2 4816      		cp r4,r24
 3284 06f4 5906      		cpc r5,r25
 3285 06f6 6A06      		cpc r6,r26
 3286 06f8 7B06      		cpc r7,r27
 3287 06fa 00F4      		brsh .+2
 3288 06fc 00C0      		rjmp .L217
 3289 06fe 8FEF      		ldi r24,lo8(-1)
 3290 0700 9FEF      		ldi r25,lo8(-1)
 3291 0702 DC01      		movw r26,r24
 3292 0704 F801      		movw r30,r16
 3293 0706 8787      		std Z+15,r24
 3294 0708 908B      		std Z+16,r25
 3295 070a A18B      		std Z+17,r26
 3296 070c B28B      		std Z+18,r27
 3297 070e 8387      		std Z+11,r24
 3298 0710 9487      		std Z+12,r25
 3299 0712 A587      		std Z+13,r26
 3300 0714 B687      		std Z+14,r27
 3301 0716 80E8      		ldi r24,lo8(-128)
 3302 0718 8483      		std Z+4,r24
 3303 071a E05A      		subi r30,-96
 3304 071c FF4F      		sbci r31,-1
 3305 071e 9081      		ld r25,Z
 3306 0720 3197      		sbiw r30,1
 3307 0722 8081      		ld r24,Z
 3308 0724 23E0      		ldi r18,lo8(3)
 3309 0726 0197      		sbiw r24,1
 3310 0728 01F0      		breq .+2
 3311 072a 00C0      		rjmp .L166
 3312 072c 4DA1      		ldd r20,Y+37
 3313 072e 5EA1      		ldd r21,Y+38
 3314 0730 6FA1      		ldd r22,Y+39
 3315 0732 78A5      		ldd r23,Y+40
 3316 0734 4F5F      		subi r20,-1
 3317 0736 5F4F      		sbci r21,-1
 3318 0738 6F4F      		sbci r22,-1
 3319 073a 7F4F      		sbci r23,-1
 3320 073c C801      		movw r24,r16
 3321 073e 0E94 0000 		call _ZL11move_windowP5FATFSm
 3322 0742 23E0      		ldi r18,lo8(3)
 3323 0744 892B      		or r24,r25
 3324 0746 01F0      		breq .+2
 3325 0748 00C0      		rjmp .L166
 3326 074a D801      		movw r26,r16
 3327 074c 1496      		adiw r26,4
 3328 074e 1C92      		st X,__zero_reg__
 3329 0750 F801      		movw r30,r16
 3330 0752 E25D      		subi r30,-46
 3331 0754 FD4F      		sbci r31,-3
 3332 0756 9081      		ld r25,Z
 3333 0758 3197      		sbiw r30,1
 3334 075a 8081      		ld r24,Z
GAS LISTING C:\Users\ANDRLU~1\AppData\Local\Temp\ccpruXkc.s 			page 59


 3335 075c 23E0      		ldi r18,lo8(3)
 3336 075e 8535      		cpi r24,85
 3337 0760 9A4A      		sbci r25,-86
 3338 0762 01F0      		breq .+2
 3339 0764 00C0      		rjmp .L166
 3340 0766 C801      		movw r24,r16
 3341 0768 8F96      		adiw r24,47
 3342 076a 0E94 0000 		call _ZL8ld_dwordPKh
 3343 076e 698B      		std Y+17,r22
 3344 0770 7A8B      		std Y+18,r23
 3345 0772 8B8B      		std Y+19,r24
 3346 0774 9C8B      		std Y+20,r25
 3347 0776 23E0      		ldi r18,lo8(3)
 3348 0778 6235      		cpi r22,82
 3349 077a 7245      		sbci r23,82
 3350 077c 8146      		sbci r24,97
 3351 077e 9144      		sbci r25,65
 3352 0780 01F0      		breq .+2
 3353 0782 00C0      		rjmp .L166
 3354 0784 C801      		movw r24,r16
 3355 0786 8D5E      		subi r24,-19
 3356 0788 9D4F      		sbci r25,-3
 3357 078a 0E94 0000 		call _ZL8ld_dwordPKh
 3358 078e 698B      		std Y+17,r22
 3359 0790 7A8B      		std Y+18,r23
 3360 0792 8B8B      		std Y+19,r24
 3361 0794 9C8B      		std Y+20,r25
 3362 0796 23E0      		ldi r18,lo8(3)
 3363 0798 6237      		cpi r22,114
 3364 079a 7247      		sbci r23,114
 3365 079c 8144      		sbci r24,65
 3366 079e 9146      		sbci r25,97
 3367 07a0 01F0      		breq .+2
 3368 07a2 00C0      		rjmp .L166
 3369 07a4 C801      		movw r24,r16
 3370 07a6 895E      		subi r24,-23
 3371 07a8 9D4F      		sbci r25,-3
 3372 07aa 0E94 0000 		call _ZL8ld_dwordPKh
 3373 07ae D801      		movw r26,r16
 3374 07b0 1F96      		adiw r26,15
 3375 07b2 6D93      		st X+,r22
 3376 07b4 7D93      		st X+,r23
 3377 07b6 8D93      		st X+,r24
 3378 07b8 9C93      		st X,r25
 3379 07ba 5297      		sbiw r26,15+3
 3380 07bc C801      		movw r24,r16
 3381 07be 855E      		subi r24,-27
 3382 07c0 9D4F      		sbci r25,-3
 3383 07c2 0E94 0000 		call _ZL8ld_dwordPKh
 3384 07c6 F801      		movw r30,r16
 3385 07c8 6387      		std Z+11,r22
 3386 07ca 7487      		std Z+12,r23
 3387 07cc 8587      		std Z+13,r24
 3388 07ce 9687      		std Z+14,r25
 3389 07d0 23E0      		ldi r18,lo8(3)
 3390 07d2 00C0      		rjmp .L166
 3392               		.section	.text._ZL8ld_clustP5FATFSPKh,"ax",@progbits
GAS LISTING C:\Users\ANDRLU~1\AppData\Local\Temp\ccpruXkc.s 			page 60


 3394               	_ZL8ld_clustP5FATFSPKh:
 3395 0000 CF93      		push r28
 3396 0002 DF93      		push r29
 3397 0004 00D0      		rcall .
 3398 0006 00D0      		rcall .
 3399 0008 CDB7      		in r28,__SP_L__
 3400 000a DEB7      		in r29,__SP_H__
 3401               	/* prologue: function */
 3402               	/* frame size = 4 */
 3403               	/* stack size = 6 */
 3404               	.L__stack_usage = 6
 3405 000c E62F      		mov r30,r22
 3406 000e F72F      		mov r31,r23
 3407 0010 338D      		ldd r19,Z+27
 3408 0012 228D      		ldd r18,Z+26
 3409 0014 A901      		movw r20,r18
 3410 0016 60E0      		ldi r22,0
 3411 0018 70E0      		ldi r23,0
 3412 001a 4983      		std Y+1,r20
 3413 001c 5A83      		std Y+2,r21
 3414 001e 6B83      		std Y+3,r22
 3415 0020 7C83      		std Y+4,r23
 3416 0022 DC01      		movw r26,r24
 3417 0024 8C91      		ld r24,X
 3418 0026 8330      		cpi r24,lo8(3)
 3419 0028 01F0      		breq .L220
 3420               	.L218:
 3421 002a 6981      		ldd r22,Y+1
 3422 002c 7A81      		ldd r23,Y+2
 3423 002e 8B81      		ldd r24,Y+3
 3424 0030 9C81      		ldd r25,Y+4
 3425               	/* epilogue start */
 3426 0032 0F90      		pop __tmp_reg__
 3427 0034 0F90      		pop __tmp_reg__
 3428 0036 0F90      		pop __tmp_reg__
 3429 0038 0F90      		pop __tmp_reg__
 3430 003a DF91      		pop r29
 3431 003c CF91      		pop r28
 3432 003e 0895      		ret
 3433               	.L220:
 3434 0040 9589      		ldd r25,Z+21
 3435 0042 8489      		ldd r24,Z+20
 3436 0044 A0E0      		ldi r26,0
 3437 0046 B0E0      		ldi r27,0
 3438 0048 DC01      		movw r26,r24
 3439 004a 9927      		clr r25
 3440 004c 8827      		clr r24
 3441 004e 482B      		or r20,r24
 3442 0050 592B      		or r21,r25
 3443 0052 6A2B      		or r22,r26
 3444 0054 7B2B      		or r23,r27
 3445 0056 4983      		std Y+1,r20
 3446 0058 5A83      		std Y+2,r21
 3447 005a 6B83      		std Y+3,r22
 3448 005c 7C83      		std Y+4,r23
 3449 005e 00C0      		rjmp .L218
 3451               		.section	.rodata._ZL11follow_pathP3DIRPKc.str1.1,"aMS",@progbits,1
GAS LISTING C:\Users\ANDRLU~1\AppData\Local\Temp\ccpruXkc.s 			page 61


 3452               	.LC2:
 3453 0000 222A 2B2C 		.string	"\"*+,:;<=>?[]|\177"
 3453      3A3B 3C3D 
 3453      3E3F 5B5D 
 3453      7C7F 00
 3454               		.section	.text._ZL11follow_pathP3DIRPKc,"ax",@progbits
 3456               	_ZL11follow_pathP3DIRPKc:
 3457 0000 2F92      		push r2
 3458 0002 3F92      		push r3
 3459 0004 4F92      		push r4
 3460 0006 5F92      		push r5
 3461 0008 6F92      		push r6
 3462 000a 7F92      		push r7
 3463 000c 8F92      		push r8
 3464 000e 9F92      		push r9
 3465 0010 AF92      		push r10
 3466 0012 BF92      		push r11
 3467 0014 CF92      		push r12
 3468 0016 DF92      		push r13
 3469 0018 EF92      		push r14
 3470 001a FF92      		push r15
 3471 001c 0F93      		push r16
 3472 001e 1F93      		push r17
 3473 0020 CF93      		push r28
 3474 0022 DF93      		push r29
 3475               	/* prologue: function */
 3476               	/* frame size = 0 */
 3477               	/* stack size = 18 */
 3478               	.L__stack_usage = 18
 3479 0024 082F      		mov r16,r24
 3480 0026 192F      		mov r17,r25
 3481 0028 D801      		movw r26,r16
 3482 002a 4D90      		ld r4,X+
 3483 002c 5C90      		ld r5,X
 3484 002e E62F      		mov r30,r22
 3485 0030 F72F      		mov r31,r23
 3486               	.L222:
 3487 0032 5F01      		movw r10,r30
 3488 0034 8191      		ld r24,Z+
 3489 0036 8F32      		cpi r24,lo8(47)
 3490 0038 01F0      		breq .L222
 3491 003a 8C35      		cpi r24,lo8(92)
 3492 003c 01F0      		breq .L222
 3493 003e F801      		movw r30,r16
 3494 0040 1682      		std Z+6,__zero_reg__
 3495 0042 1782      		std Z+7,__zero_reg__
 3496 0044 1086      		std Z+8,__zero_reg__
 3497 0046 1186      		std Z+9,__zero_reg__
 3498 0048 D501      		movw r26,r10
 3499 004a 8C91      		ld r24,X
 3500 004c 082E      		mov __tmp_reg__,r24
 3501 004e 000C      		lsl r0
 3502 0050 990B      		sbc r25,r25
 3503 0052 8097      		sbiw r24,32
 3504 0054 00F0      		brlo .L257
 3505 0056 3801      		movw r6,r16
 3506 0058 BCE1      		ldi r27,28
GAS LISTING C:\Users\ANDRLU~1\AppData\Local\Temp\ccpruXkc.s 			page 62


 3507 005a 6B0E      		add r6,r27
 3508 005c 711C      		adc r7,__zero_reg__
 3509 005e 6801      		movw r12,r16
 3510 0060 E7E2      		ldi r30,39
 3511 0062 CE0E      		add r12,r30
 3512 0064 D11C      		adc r13,__zero_reg__
 3513 0066 6894      		set
 3514 0068 FF24      		clr r15
 3515 006a F5F8      		bld r15,5
 3516 006c E12C      		mov r14,__zero_reg__
 3517 006e 1201      		movw r2,r4
 3518 0070 FFE2      		ldi r31,47
 3519 0072 2F0E      		add r2,r31
 3520 0074 311C      		adc r3,__zero_reg__
 3521 0076 00C0      		rjmp .L224
 3522               	.L257:
 3523 0078 80E8      		ldi r24,lo8(-128)
 3524 007a 87A3      		std Z+39,r24
 3525 007c 40E0      		ldi r20,0
 3526 007e 50E0      		ldi r21,0
 3527 0080 BA01      		movw r22,r20
 3528 0082 C801      		movw r24,r16
 3529 0084 0E94 0000 		call _ZL7dir_sdiP3DIRm
 3530 0088 C82F      		mov r28,r24
 3531 008a D92F      		mov r29,r25
 3532               	.L221:
 3533 008c CE01      		movw r24,r28
 3534               	/* epilogue start */
 3535 008e DF91      		pop r29
 3536 0090 CF91      		pop r28
 3537 0092 1F91      		pop r17
 3538 0094 0F91      		pop r16
 3539 0096 FF90      		pop r15
 3540 0098 EF90      		pop r14
 3541 009a DF90      		pop r13
 3542 009c CF90      		pop r12
 3543 009e BF90      		pop r11
 3544 00a0 AF90      		pop r10
 3545 00a2 9F90      		pop r9
 3546 00a4 8F90      		pop r8
 3547 00a6 7F90      		pop r7
 3548 00a8 6F90      		pop r6
 3549 00aa 5F90      		pop r5
 3550 00ac 4F90      		pop r4
 3551 00ae 3F90      		pop r3
 3552 00b0 2F90      		pop r2
 3553 00b2 0895      		ret
 3554               	.L233:
 3555 00b4 0196      		adiw r24,1
 3556               	.L232:
 3557 00b6 4191      		ld r20,Z+
 3558 00b8 4F32      		cpi r20,lo8(47)
 3559 00ba 01F0      		breq .L233
 3560 00bc 4C35      		cpi r20,lo8(92)
 3561 00be 01F0      		breq .L233
 3562               	.L229:
 3563 00c0 A80E      		add r10,r24
GAS LISTING C:\Users\ANDRLU~1\AppData\Local\Temp\ccpruXkc.s 			page 63


 3564 00c2 B91E      		adc r11,r25
 3565 00c4 232B      		or r18,r19
 3566 00c6 01F4      		brne .+2
 3567 00c8 00C0      		rjmp .L227
 3568 00ca D801      		movw r26,r16
 3569 00cc 5C96      		adiw r26,28
 3570 00ce 8C91      		ld r24,X
 3571 00d0 5C97      		sbiw r26,28
 3572 00d2 853E      		cpi r24,lo8(-27)
 3573 00d4 01F4      		brne .+2
 3574 00d6 00C0      		rjmp .L265
 3575               	.L243:
 3576 00d8 81E0      		ldi r24,lo8(1)
 3577 00da C132      		cpi r28,lo8(33)
 3578 00dc 00F0      		brlo .L244
 3579 00de 80E0      		ldi r24,0
 3580               	.L244:
 3581 00e0 880F      		lsl r24
 3582 00e2 880F      		lsl r24
 3583 00e4 F801      		movw r30,r16
 3584 00e6 87A3      		std Z+39,r24
 3585 00e8 8080      		ld r8,Z
 3586 00ea 9180      		ldd r9,Z+1
 3587 00ec 40E0      		ldi r20,0
 3588 00ee 50E0      		ldi r21,0
 3589 00f0 BA01      		movw r22,r20
 3590 00f2 C801      		movw r24,r16
 3591 00f4 0E94 0000 		call _ZL7dir_sdiP3DIRm
 3592 00f8 C82F      		mov r28,r24
 3593 00fa D92F      		mov r29,r25
 3594 00fc 2097      		sbiw r28,0
 3595 00fe 01F4      		brne .+2
 3596 0100 00C0      		rjmp .L249
 3597               	.L245:
 3598 0102 F801      		movw r30,r16
 3599 0104 87A1      		ldd r24,Z+39
 3600               	.L250:
 3601 0106 C430      		cpi r28,4
 3602 0108 D105      		cpc r29,__zero_reg__
 3603 010a 01F0      		breq .+2
 3604 010c 00C0      		rjmp .L221
 3605 010e 82FD      		sbrc r24,2
 3606 0110 00C0      		rjmp .L221
 3607 0112 C5E0      		ldi r28,lo8(5)
 3608 0114 D0E0      		ldi r29,0
 3609 0116 00C0      		rjmp .L221
 3610               	.L230:
 3611 0118 F501      		movw r30,r10
 3612 011a E80F      		add r30,r24
 3613 011c F91F      		adc r31,r25
 3614 011e 00C0      		rjmp .L232
 3615               	.L267:
 3616 0120 8D3F      		cpi r24,lo8(-3)
 3617 0122 00F0      		brlo .+2
 3618 0124 00C0      		rjmp .L227
 3619               	.L237:
 3620 0126 BD01      		movw r22,r26
GAS LISTING C:\Users\ANDRLU~1\AppData\Local\Temp\ccpruXkc.s 			page 64


 3621 0128 6150      		subi r22,1
 3622 012a 7109      		sbc r23,__zero_reg__
 3623 012c 2617      		cp r18,r22
 3624 012e 3707      		cpc r19,r23
 3625 0130 00F0      		brlo .+2
 3626 0132 00C0      		rjmp .L227
 3627 0134 F301      		movw r30,r6
 3628 0136 E20F      		add r30,r18
 3629 0138 F31F      		adc r31,r19
 3630 013a C083      		st Z,r28
 3631 013c F901      		movw r30,r18
 3632 013e 3196      		adiw r30,1
 3633 0140 E60D      		add r30,r6
 3634 0142 F71D      		adc r31,r7
 3635 0144 2E5F      		subi r18,-2
 3636 0146 3F4F      		sbci r19,-1
 3637 0148 8083      		st Z,r24
 3638 014a 00C0      		rjmp .L238
 3639               	.L235:
 3640 014c 6C2F      		mov r22,r28
 3641 014e 70E0      		ldi r23,0
 3642 0150 E0E0      		ldi r30,lo8(.LC2+1)
 3643 0152 F0E0      		ldi r31,hi8(.LC2+1)
 3644 0154 D2E2      		ldi r29,lo8(34)
 3645               	.L239:
 3646 0156 4D2F      		mov r20,r29
 3647 0158 0D2E      		mov __tmp_reg__,r29
 3648 015a 000C      		lsl r0
 3649 015c 550B      		sbc r21,r21
 3650 015e 6417      		cp r22,r20
 3651 0160 7507      		cpc r23,r21
 3652 0162 01F0      		breq .L266
 3653 0164 D191      		ld r29,Z+
 3654 0166 D111      		cpse r29,__zero_reg__
 3655 0168 00C0      		rjmp .L239
 3656 016a 00C0      		rjmp .L240
 3657               	.L266:
 3658 016c D111      		cpse r29,__zero_reg__
 3659 016e 00C0      		rjmp .L227
 3660               	.L240:
 3661 0170 4FE9      		ldi r20,lo8(-97)
 3662 0172 4C0F      		add r20,r28
 3663 0174 4A31      		cpi r20,lo8(26)
 3664 0176 00F4      		brsh .L242
 3665 0178 C052      		subi r28,lo8(-(-32))
 3666               	.L242:
 3667 017a F301      		movw r30,r6
 3668 017c E20F      		add r30,r18
 3669 017e F31F      		adc r31,r19
 3670 0180 C083      		st Z,r28
 3671 0182 2F5F      		subi r18,-1
 3672 0184 3F4F      		sbci r19,-1
 3673 0186 AC01      		movw r20,r24
 3674 0188 00C0      		rjmp .L238
 3675               	.L265:
 3676 018a 85E0      		ldi r24,lo8(5)
 3677 018c 5C96      		adiw r26,28
GAS LISTING C:\Users\ANDRLU~1\AppData\Local\Temp\ccpruXkc.s 			page 65


 3678 018e 8C93      		st X,r24
 3679 0190 00C0      		rjmp .L243
 3680               	.L247:
 3681 0192 60E0      		ldi r22,0
 3682 0194 70E0      		ldi r23,0
 3683 0196 C801      		movw r24,r16
 3684 0198 0E94 0000 		call _ZL8dir_nextP3DIRi
 3685 019c C82F      		mov r28,r24
 3686 019e D92F      		mov r29,r25
 3687 01a0 2097      		sbiw r28,0
 3688 01a2 01F0      		breq .+2
 3689 01a4 00C0      		rjmp .L245
 3690               	.L249:
 3691 01a6 D801      		movw r26,r16
 3692 01a8 5696      		adiw r26,22
 3693 01aa 4D91      		ld r20,X+
 3694 01ac 5D91      		ld r21,X+
 3695 01ae 6D91      		ld r22,X+
 3696 01b0 7C91      		ld r23,X
 3697 01b2 5997      		sbiw r26,22+3
 3698 01b4 C401      		movw r24,r8
 3699 01b6 0E94 0000 		call _ZL11move_windowP5FATFSm
 3700 01ba C82F      		mov r28,r24
 3701 01bc D92F      		mov r29,r25
 3702 01be 2097      		sbiw r28,0
 3703 01c0 01F0      		breq .+2
 3704 01c2 00C0      		rjmp .L245
 3705 01c4 D801      		movw r26,r16
 3706 01c6 5A96      		adiw r26,26
 3707 01c8 ED91      		ld r30,X+
 3708 01ca FC91      		ld r31,X
 3709 01cc 5B97      		sbiw r26,26+1
 3710 01ce 8081      		ld r24,Z
 3711 01d0 8823      		tst r24
 3712 01d2 01F4      		brne .+2
 3713 01d4 00C0      		rjmp .L246
 3714 01d6 8385      		ldd r24,Z+11
 3715 01d8 8F73      		andi r24,lo8(63)
 3716 01da 1496      		adiw r26,4
 3717 01dc 8C93      		st X,r24
 3718 01de 8385      		ldd r24,Z+11
 3719 01e0 83FD      		sbrc r24,3
 3720 01e2 00C0      		rjmp .L247
 3721 01e4 4BE0      		ldi r20,lo8(11)
 3722 01e6 50E0      		ldi r21,0
 3723 01e8 B301      		movw r22,r6
 3724 01ea CF01      		movw r24,r30
 3725 01ec 0E94 0000 		call _ZL7mem_cmpPKvS0_j
 3726 01f0 892B      		or r24,r25
 3727 01f2 01F4      		brne .L247
 3728 01f4 D801      		movw r26,r16
 3729 01f6 9796      		adiw r26,39
 3730 01f8 8C91      		ld r24,X
 3731 01fa 82FD      		sbrc r24,2
 3732 01fc 00C0      		rjmp .L221
 3733 01fe F801      		movw r30,r16
 3734 0200 8481      		ldd r24,Z+4
GAS LISTING C:\Users\ANDRLU~1\AppData\Local\Temp\ccpruXkc.s 			page 66


 3735 0202 84FF      		sbrs r24,4
 3736 0204 00C0      		rjmp .L253
 3737 0206 6685      		ldd r22,Z+14
 3738 0208 7785      		ldd r23,Z+15
 3739 020a 7170      		andi r23,1
 3740 020c 620D      		add r22,r2
 3741 020e 731D      		adc r23,r3
 3742 0210 C201      		movw r24,r4
 3743 0212 0E94 0000 		call _ZL8ld_clustP5FATFSPKh
 3744 0216 D801      		movw r26,r16
 3745 0218 1696      		adiw r26,6
 3746 021a 6D93      		st X+,r22
 3747 021c 7D93      		st X+,r23
 3748 021e 8D93      		st X+,r24
 3749 0220 9C93      		st X,r25
 3750 0222 1997      		sbiw r26,6+3
 3751               	.L224:
 3752 0224 C301      		movw r24,r6
 3753               	.L226:
 3754 0226 FC01      		movw r30,r24
 3755 0228 0196      		adiw r24,1
 3756 022a F082      		st Z,r15
 3757 022c 8C15      		cp r24,r12
 3758 022e 9D05      		cpc r25,r13
 3759 0230 01F4      		brne .L226
 3760 0232 F501      		movw r30,r10
 3761 0234 C081      		ld r28,Z
 3762 0236 C132      		cpi r28,lo8(33)
 3763 0238 00F4      		brsh .+2
 3764 023a 00C0      		rjmp .L227
 3765 023c 20E0      		ldi r18,0
 3766 023e 30E0      		ldi r19,0
 3767 0240 A8E0      		ldi r26,lo8(8)
 3768 0242 BE2D      		mov r27,r14
 3769 0244 81E0      		ldi r24,lo8(1)
 3770 0246 90E0      		ldi r25,0
 3771 0248 40E0      		ldi r20,0
 3772 024a 50E0      		ldi r21,0
 3773 024c 00C0      		rjmp .L228
 3774               	.L253:
 3775 024e C5E0      		ldi r28,lo8(5)
 3776 0250 D0E0      		ldi r29,0
 3777 0252 00C0      		rjmp .L221
 3778               	.L234:
 3779 0254 1B97      		sbiw r26,11
 3780 0256 01F0      		breq .L227
 3781 0258 AC01      		movw r20,r24
 3782 025a 28E0      		ldi r18,lo8(8)
 3783 025c 30E0      		ldi r19,0
 3784 025e ABE0      		ldi r26,lo8(11)
 3785 0260 B0E0      		ldi r27,0
 3786               	.L238:
 3787 0262 CA01      		movw r24,r20
 3788 0264 0196      		adiw r24,1
 3789 0266 F501      		movw r30,r10
 3790 0268 E40F      		add r30,r20
 3791 026a F51F      		adc r31,r21
GAS LISTING C:\Users\ANDRLU~1\AppData\Local\Temp\ccpruXkc.s 			page 67


 3792 026c C081      		ld r28,Z
 3793 026e C132      		cpi r28,lo8(33)
 3794 0270 00F4      		brsh .+2
 3795 0272 00C0      		rjmp .L229
 3796               	.L228:
 3797 0274 CF32      		cpi r28,lo8(47)
 3798 0276 01F4      		brne .+2
 3799 0278 00C0      		rjmp .L230
 3800 027a CC35      		cpi r28,lo8(92)
 3801 027c 01F4      		brne .+2
 3802 027e 00C0      		rjmp .L230
 3803 0280 CE32      		cpi r28,lo8(46)
 3804 0282 01F0      		breq .L234
 3805 0284 2A17      		cp r18,r26
 3806 0286 3B07      		cpc r19,r27
 3807 0288 00F4      		brsh .L227
 3808 028a C138      		cpi r28,lo8(-127)
 3809 028c 00F4      		brsh .+2
 3810 028e 00C0      		rjmp .L235
 3811 0290 C03A      		cpi r28,lo8(-96)
 3812 0292 00F0      		brlo .L236
 3813 0294 60E2      		ldi r22,lo8(32)
 3814 0296 6C0F      		add r22,r28
 3815 0298 6D31      		cpi r22,lo8(29)
 3816 029a 00F0      		brlo .+2
 3817 029c 00C0      		rjmp .L235
 3818               	.L236:
 3819 029e 4E5F      		subi r20,-2
 3820 02a0 5F4F      		sbci r21,-1
 3821 02a2 F501      		movw r30,r10
 3822 02a4 E80F      		add r30,r24
 3823 02a6 F91F      		adc r31,r25
 3824 02a8 8081      		ld r24,Z
 3825 02aa 8034      		cpi r24,lo8(64)
 3826 02ac 00F0      		brlo .L227
 3827 02ae 8F37      		cpi r24,lo8(127)
 3828 02b0 00F4      		brsh .+2
 3829 02b2 00C0      		rjmp .L237
 3830 02b4 8823      		tst r24
 3831 02b6 04F4      		brge .+2
 3832 02b8 00C0      		rjmp .L267
 3833               	.L227:
 3834 02ba C6E0      		ldi r28,lo8(6)
 3835 02bc D0E0      		ldi r29,0
 3836 02be 00C0      		rjmp .L221
 3837               	.L246:
 3838 02c0 F801      		movw r30,r16
 3839 02c2 87A1      		ldd r24,Z+39
 3840 02c4 C4E0      		ldi r28,lo8(4)
 3841 02c6 D0E0      		ldi r29,0
 3842 02c8 00C0      		rjmp .L250
 3844               		.section	.text.f_mount,"ax",@progbits
 3845               	.global	f_mount
 3847               	f_mount:
 3848 0000 1F93      		push r17
 3849 0002 CF93      		push r28
 3850 0004 DF93      		push r29
GAS LISTING C:\Users\ANDRLU~1\AppData\Local\Temp\ccpruXkc.s 			page 68


 3851 0006 00D0      		rcall .
 3852 0008 00D0      		rcall .
 3853 000a 00D0      		rcall .
 3854 000c CDB7      		in r28,__SP_L__
 3855 000e DEB7      		in r29,__SP_H__
 3856               	/* prologue: function */
 3857               	/* frame size = 6 */
 3858               	/* stack size = 9 */
 3859               	.L__stack_usage = 9
 3860 0010 9C83      		std Y+4,r25
 3861 0012 8B83      		std Y+3,r24
 3862 0014 7E83      		std Y+6,r23
 3863 0016 6D83      		std Y+5,r22
 3864 0018 142F      		mov r17,r20
 3865 001a 7A83      		std Y+2,r23
 3866 001c 6983      		std Y+1,r22
 3867 001e CE01      		movw r24,r28
 3868 0020 0196      		adiw r24,1
 3869 0022 0E94 0000 		call _ZL12get_ldnumberPPKc
 3870 0026 282F      		mov r18,r24
 3871 0028 392F      		mov r19,r25
 3872 002a 3323      		tst r19
 3873 002c 04F0      		brlt .L272
 3874 002e F901      		movw r30,r18
 3875 0030 EE0F      		lsl r30
 3876 0032 FF1F      		rol r31
 3877 0034 E050      		subi r30,lo8(-(_ZL5FatFs))
 3878 0036 F040      		sbci r31,hi8(-(_ZL5FatFs))
 3879 0038 0190      		ld __tmp_reg__,Z+
 3880 003a F081      		ld r31,Z
 3881 003c E02D      		mov r30,__tmp_reg__
 3882 003e 3097      		sbiw r30,0
 3883 0040 01F0      		breq .L270
 3884 0042 1082      		st Z,__zero_reg__
 3885               	.L270:
 3886 0044 AB81      		ldd r26,Y+3
 3887 0046 BC81      		ldd r27,Y+4
 3888 0048 1097      		sbiw r26,0
 3889 004a 01F0      		breq .L271
 3890 004c 1C92      		st X,__zero_reg__
 3891               	.L271:
 3892 004e 220F      		lsl r18
 3893 0050 331F      		rol r19
 3894 0052 F901      		movw r30,r18
 3895 0054 E050      		subi r30,lo8(-(_ZL5FatFs))
 3896 0056 F040      		sbci r31,hi8(-(_ZL5FatFs))
 3897 0058 B183      		std Z+1,r27
 3898 005a A083      		st Z,r26
 3899 005c 80E0      		ldi r24,0
 3900 005e 90E0      		ldi r25,0
 3901 0060 1111      		cpse r17,__zero_reg__
 3902 0062 00C0      		rjmp .L274
 3903               	.L268:
 3904               	/* epilogue start */
 3905 0064 0F90      		pop __tmp_reg__
 3906 0066 0F90      		pop __tmp_reg__
 3907 0068 0F90      		pop __tmp_reg__
GAS LISTING C:\Users\ANDRLU~1\AppData\Local\Temp\ccpruXkc.s 			page 69


 3908 006a 0F90      		pop __tmp_reg__
 3909 006c 0F90      		pop __tmp_reg__
 3910 006e 0F90      		pop __tmp_reg__
 3911 0070 DF91      		pop r29
 3912 0072 CF91      		pop r28
 3913 0074 1F91      		pop r17
 3914 0076 0895      		ret
 3915               	.L274:
 3916 0078 40E0      		ldi r20,0
 3917 007a BE01      		movw r22,r28
 3918 007c 6D5F      		subi r22,-3
 3919 007e 7F4F      		sbci r23,-1
 3920 0080 CE01      		movw r24,r28
 3921 0082 0596      		adiw r24,5
 3922 0084 0E94 0000 		call _ZL11find_volumePPKcPP5FATFSh
 3923 0088 00C0      		rjmp .L268
 3924               	.L272:
 3925 008a 8BE0      		ldi r24,lo8(11)
 3926 008c 90E0      		ldi r25,0
 3927 008e 00C0      		rjmp .L268
 3929               		.section	.text.f_open,"ax",@progbits
 3930               	.global	f_open
 3932               	f_open:
 3933 0000 2F92      		push r2
 3934 0002 3F92      		push r3
 3935 0004 4F92      		push r4
 3936 0006 5F92      		push r5
 3937 0008 6F92      		push r6
 3938 000a 7F92      		push r7
 3939 000c 8F92      		push r8
 3940 000e 9F92      		push r9
 3941 0010 AF92      		push r10
 3942 0012 BF92      		push r11
 3943 0014 CF92      		push r12
 3944 0016 DF92      		push r13
 3945 0018 EF92      		push r14
 3946 001a FF92      		push r15
 3947 001c 0F93      		push r16
 3948 001e 1F93      		push r17
 3949 0020 CF93      		push r28
 3950 0022 DF93      		push r29
 3951 0024 CDB7      		in r28,__SP_L__
 3952 0026 DEB7      		in r29,__SP_H__
 3953 0028 EC97      		sbiw r28,60
 3954 002a 0FB6      		in __tmp_reg__,__SREG__
 3955 002c F894      		cli
 3956 002e DEBF      		out __SP_H__,r29
 3957 0030 0FBE      		out __SREG__,__tmp_reg__
 3958 0032 CDBF      		out __SP_L__,r28
 3959               	/* prologue: function */
 3960               	/* frame size = 60 */
 3961               	/* stack size = 78 */
 3962               	.L__stack_usage = 78
 3963 0034 E82E      		mov r14,r24
 3964 0036 F92E      		mov r15,r25
 3965 0038 7CA7      		std Y+44,r23
 3966 003a 6BA7      		std Y+43,r22
GAS LISTING C:\Users\ANDRLU~1\AppData\Local\Temp\ccpruXkc.s 			page 70


 3967 003c 142F      		mov r17,r20
 3968 003e 0F2E      		mov __tmp_reg__,r31
 3969 0040 F9E0      		ldi r31,lo8(9)
 3970 0042 CF2E      		mov r12,r31
 3971 0044 D12C      		mov r13,__zero_reg__
 3972 0046 F02D      		mov r31,__tmp_reg__
 3973 0048 E114      		cp r14,__zero_reg__
 3974 004a F104      		cpc r15,__zero_reg__
 3975 004c 01F0      		breq .L275
 3976 004e 242F      		mov r18,r20
 3977 0050 2F73      		andi r18,lo8(63)
 3978 0052 2DA7      		std Y+45,r18
 3979 0054 422F      		mov r20,r18
 3980 0056 BE01      		movw r22,r28
 3981 0058 675D      		subi r22,-41
 3982 005a 7F4F      		sbci r23,-1
 3983 005c CE01      		movw r24,r28
 3984 005e 8B96      		adiw r24,43
 3985 0060 0E94 0000 		call _ZL11find_volumePPKcPP5FATFSh
 3986 0064 C82E      		mov r12,r24
 3987 0066 D92E      		mov r13,r25
 3988 0068 C114      		cp r12,__zero_reg__
 3989 006a D104      		cpc r13,__zero_reg__
 3990 006c 01F0      		breq .L331
 3991               	.L277:
 3992 006e D701      		movw r26,r14
 3993 0070 1D92      		st X+,__zero_reg__
 3994 0072 1C92      		st X,__zero_reg__
 3995               	.L275:
 3996 0074 C601      		movw r24,r12
 3997               	/* epilogue start */
 3998 0076 EC96      		adiw r28,60
 3999 0078 0FB6      		in __tmp_reg__,__SREG__
 4000 007a F894      		cli
 4001 007c DEBF      		out __SP_H__,r29
 4002 007e 0FBE      		out __SREG__,__tmp_reg__
 4003 0080 CDBF      		out __SP_L__,r28
 4004 0082 DF91      		pop r29
 4005 0084 CF91      		pop r28
 4006 0086 1F91      		pop r17
 4007 0088 0F91      		pop r16
 4008 008a FF90      		pop r15
 4009 008c EF90      		pop r14
 4010 008e DF90      		pop r13
 4011 0090 CF90      		pop r12
 4012 0092 BF90      		pop r11
 4013 0094 AF90      		pop r10
 4014 0096 9F90      		pop r9
 4015 0098 8F90      		pop r8
 4016 009a 7F90      		pop r7
 4017 009c 6F90      		pop r6
 4018 009e 5F90      		pop r5
 4019 00a0 4F90      		pop r4
 4020 00a2 3F90      		pop r3
 4021 00a4 2F90      		pop r2
 4022 00a6 0895      		ret
 4023               	.L331:
GAS LISTING C:\Users\ANDRLU~1\AppData\Local\Temp\ccpruXkc.s 			page 71


 4024 00a8 29A4      		ldd r2,Y+41
 4025 00aa 3AA4      		ldd r3,Y+42
 4026 00ac 3A82      		std Y+2,r3
 4027 00ae 2982      		std Y+1,r2
 4028 00b0 6BA5      		ldd r22,Y+43
 4029 00b2 7CA5      		ldd r23,Y+44
 4030 00b4 CE01      		movw r24,r28
 4031 00b6 0196      		adiw r24,1
 4032 00b8 0E94 0000 		call _ZL11follow_pathP3DIRPKc
 4033 00bc 282F      		mov r18,r24
 4034 00be 392F      		mov r19,r25
 4035 00c0 2115      		cp r18,__zero_reg__
 4036 00c2 3105      		cpc r19,__zero_reg__
 4037 00c4 01F0      		breq .+2
 4038 00c6 00C0      		rjmp .L278
 4039 00c8 88A5      		ldd r24,Y+40
 4040 00ca 8823      		tst r24
 4041 00cc 04F4      		brge .+2
 4042 00ce 00C0      		rjmp .L332
 4043 00d0 812F      		mov r24,r17
 4044 00d2 8C71      		andi r24,lo8(28)
 4045 00d4 8823      		tst r24
 4046 00d6 01F4      		brne .+2
 4047 00d8 00C0      		rjmp .L333
 4048 00da 8D81      		ldd r24,Y+5
 4049 00dc 8171      		andi r24,lo8(17)
 4050 00de 8111      		cpse r24,__zero_reg__
 4051 00e0 00C0      		rjmp .L306
 4052 00e2 12FF      		sbrs r17,2
 4053 00e4 00C0      		rjmp .L286
 4054 00e6 6894      		set
 4055 00e8 CC24      		clr r12
 4056 00ea C3F8      		bld r12,3
 4057 00ec D12C      		mov r13,__zero_reg__
 4058 00ee 00C0      		rjmp .L277
 4059               	.L300:
 4060 00f0 2430      		cpi r18,4
 4061 00f2 3105      		cpc r19,__zero_reg__
 4062 00f4 01F0      		breq .L334
 4063               	.L281:
 4064 00f6 6901      		movw r12,r18
 4065 00f8 00C0      		rjmp .L277
 4066               	.L334:
 4067 00fa A980      		ldd r10,Y+1
 4068 00fc BA80      		ldd r11,Y+2
 4069 00fe 40E0      		ldi r20,0
 4070 0100 50E0      		ldi r21,0
 4071 0102 BA01      		movw r22,r20
 4072 0104 CE01      		movw r24,r28
 4073 0106 0196      		adiw r24,1
 4074 0108 0E94 0000 		call _ZL7dir_sdiP3DIRm
 4075 010c 282F      		mov r18,r24
 4076 010e 392F      		mov r19,r25
 4077 0110 2115      		cp r18,__zero_reg__
 4078 0112 3105      		cpc r19,__zero_reg__
 4079 0114 01F0      		breq .L284
 4080               	.L282:
GAS LISTING C:\Users\ANDRLU~1\AppData\Local\Temp\ccpruXkc.s 			page 72


 4081 0116 2430      		cpi r18,4
 4082 0118 3105      		cpc r19,__zero_reg__
 4083 011a 01F4      		brne .+2
 4084 011c 00C0      		rjmp .L305
 4085 011e 2115      		cp r18,__zero_reg__
 4086 0120 3105      		cpc r19,__zero_reg__
 4087 0122 01F4      		brne .L281
 4088 0124 00C0      		rjmp .L283
 4089               	.L335:
 4090 0126 61E0      		ldi r22,lo8(1)
 4091 0128 70E0      		ldi r23,0
 4092 012a CE01      		movw r24,r28
 4093 012c 0196      		adiw r24,1
 4094 012e 0E94 0000 		call _ZL8dir_nextP3DIRi
 4095 0132 282F      		mov r18,r24
 4096 0134 392F      		mov r19,r25
 4097 0136 2115      		cp r18,__zero_reg__
 4098 0138 3105      		cpc r19,__zero_reg__
 4099 013a 01F4      		brne .L282
 4100               	.L284:
 4101 013c 4F89      		ldd r20,Y+23
 4102 013e 588D      		ldd r21,Y+24
 4103 0140 698D      		ldd r22,Y+25
 4104 0142 7A8D      		ldd r23,Y+26
 4105 0144 C501      		movw r24,r10
 4106 0146 0E94 0000 		call _ZL11move_windowP5FATFSm
 4107 014a 282F      		mov r18,r24
 4108 014c 392F      		mov r19,r25
 4109 014e 2115      		cp r18,__zero_reg__
 4110 0150 3105      		cpc r19,__zero_reg__
 4111 0152 01F4      		brne .L282
 4112 0154 EB8D      		ldd r30,Y+27
 4113 0156 FC8D      		ldd r31,Y+28
 4114 0158 8081      		ld r24,Z
 4115 015a 853E      		cpi r24,lo8(-27)
 4116 015c 01F0      		breq .L283
 4117 015e 8111      		cpse r24,__zero_reg__
 4118 0160 00C0      		rjmp .L335
 4119               	.L283:
 4120 0162 4F89      		ldd r20,Y+23
 4121 0164 588D      		ldd r21,Y+24
 4122 0166 698D      		ldd r22,Y+25
 4123 0168 7A8D      		ldd r23,Y+26
 4124 016a C501      		movw r24,r10
 4125 016c 0E94 0000 		call _ZL11move_windowP5FATFSm
 4126 0170 282F      		mov r18,r24
 4127 0172 392F      		mov r19,r25
 4128 0174 2115      		cp r18,__zero_reg__
 4129 0176 3105      		cpc r19,__zero_reg__
 4130 0178 01F0      		breq .+2
 4131 017a 00C0      		rjmp .L281
 4132 017c 8B8D      		ldd r24,Y+27
 4133 017e 9C8D      		ldd r25,Y+28
 4134 0180 AC01      		movw r20,r24
 4135 0182 405E      		subi r20,-32
 4136 0184 5F4F      		sbci r21,-1
 4137 0186 9C01      		movw r18,r24
GAS LISTING C:\Users\ANDRLU~1\AppData\Local\Temp\ccpruXkc.s 			page 73


 4138               	.L285:
 4139 0188 F901      		movw r30,r18
 4140 018a 2F5F      		subi r18,-1
 4141 018c 3F4F      		sbci r19,-1
 4142 018e 1082      		st Z,__zero_reg__
 4143 0190 2417      		cp r18,r20
 4144 0192 3507      		cpc r19,r21
 4145 0194 01F4      		brne .L285
 4146 0196 4BE0      		ldi r20,lo8(11)
 4147 0198 50E0      		ldi r21,0
 4148 019a BE01      		movw r22,r28
 4149 019c 635E      		subi r22,-29
 4150 019e 7F4F      		sbci r23,-1
 4151 01a0 0E94 0000 		call _ZL7mem_cpyPvPKvj
 4152 01a4 81E0      		ldi r24,lo8(1)
 4153 01a6 D501      		movw r26,r10
 4154 01a8 1396      		adiw r26,3
 4155 01aa 8C93      		st X,r24
 4156 01ac BDA5      		ldd r27,Y+45
 4157 01ae B860      		ori r27,lo8(8)
 4158 01b0 BDA7      		std Y+45,r27
 4159               	.L286:
 4160 01b2 EDA5      		ldd r30,Y+45
 4161 01b4 E3FD      		sbrc r30,3
 4162 01b6 00C0      		rjmp .L336
 4163               	.L287:
 4164 01b8 F101      		movw r30,r2
 4165 01ba 83A5      		ldd r24,Z+43
 4166 01bc 94A5      		ldd r25,Z+44
 4167 01be A5A5      		ldd r26,Z+45
 4168 01c0 B6A5      		ldd r27,Z+46
 4169 01c2 F701      		movw r30,r14
 4170 01c4 848F      		std Z+28,r24
 4171 01c6 958F      		std Z+29,r25
 4172 01c8 A68F      		std Z+30,r26
 4173 01ca B78F      		std Z+31,r27
 4174 01cc 6B8C      		ldd r6,Y+27
 4175 01ce 7C8C      		ldd r7,Y+28
 4176 01d0 71A2      		std Z+33,r7
 4177 01d2 60A2      		std Z+32,r6
 4178 01d4 B301      		movw r22,r6
 4179 01d6 C101      		movw r24,r2
 4180 01d8 0E94 0000 		call _ZL8ld_clustP5FATFSPKh
 4181 01dc 862E      		mov r8,r22
 4182 01de 972E      		mov r9,r23
 4183 01e0 A82E      		mov r10,r24
 4184 01e2 B92E      		mov r11,r25
 4185 01e4 D701      		movw r26,r14
 4186 01e6 1696      		adiw r26,6
 4187 01e8 8D92      		st X+,r8
 4188 01ea 9D92      		st X+,r9
 4189 01ec AD92      		st X+,r10
 4190 01ee BC92      		st X,r11
 4191 01f0 1997      		sbiw r26,6+3
 4192 01f2 C301      		movw r24,r6
 4193 01f4 4C96      		adiw r24,28
 4194 01f6 0E94 0000 		call _ZL8ld_dwordPKh
GAS LISTING C:\Users\ANDRLU~1\AppData\Local\Temp\ccpruXkc.s 			page 74


 4195 01fa 462E      		mov r4,r22
 4196 01fc 572E      		mov r5,r23
 4197 01fe 682E      		mov r6,r24
 4198 0200 792E      		mov r7,r25
 4199 0202 F701      		movw r30,r14
 4200 0204 4286      		std Z+10,r4
 4201 0206 5386      		std Z+11,r5
 4202 0208 6486      		std Z+12,r6
 4203 020a 7586      		std Z+13,r7
 4204 020c 3182      		std Z+1,r3
 4205 020e 2082      		st Z,r2
 4206 0210 D101      		movw r26,r2
 4207 0212 1596      		adiw r26,5
 4208 0214 8D91      		ld r24,X+
 4209 0216 9C91      		ld r25,X
 4210 0218 9383      		std Z+3,r25
 4211 021a 8283      		std Z+2,r24
 4212 021c BDA5      		ldd r27,Y+45
 4213 021e B687      		std Z+14,r27
 4214 0220 1786      		std Z+15,__zero_reg__
 4215 0222 108E      		std Z+24,__zero_reg__
 4216 0224 118E      		std Z+25,__zero_reg__
 4217 0226 128E      		std Z+26,__zero_reg__
 4218 0228 138E      		std Z+27,__zero_reg__
 4219 022a 108A      		std Z+16,__zero_reg__
 4220 022c 118A      		std Z+17,__zero_reg__
 4221 022e 128A      		std Z+18,__zero_reg__
 4222 0230 138A      		std Z+19,__zero_reg__
 4223 0232 BDA5      		ldd r27,Y+45
 4224 0234 B5FF      		sbrs r27,5
 4225 0236 00C0      		rjmp .L275
 4226 0238 4114      		cp r4,__zero_reg__
 4227 023a 5104      		cpc r5,__zero_reg__
 4228 023c 6104      		cpc r6,__zero_reg__
 4229 023e 7104      		cpc r7,__zero_reg__
 4230 0240 01F4      		brne .+2
 4231 0242 00C0      		rjmp .L275
 4232 0244 408A      		std Z+16,r4
 4233 0246 518A      		std Z+17,r5
 4234 0248 628A      		std Z+18,r6
 4235 024a 738A      		std Z+19,r7
 4236 024c D101      		movw r26,r2
 4237 024e 1996      		adiw r26,9
 4238 0250 8D91      		ld r24,X+
 4239 0252 9C91      		ld r25,X
 4240 0254 A0E0      		ldi r26,0
 4241 0256 B0E0      		ldi r27,0
 4242 0258 9C01      		movw r18,r24
 4243 025a AD01      		movw r20,r26
 4244 025c 012E      		mov r0,r17
 4245 025e 19E0      		ldi r17,9
 4246               		1:
 4247 0260 220F      		lsl r18
 4248 0262 331F      		rol r19
 4249 0264 441F      		rol r20
 4250 0266 551F      		rol r21
 4251 0268 1A95      		dec r17
GAS LISTING C:\Users\ANDRLU~1\AppData\Local\Temp\ccpruXkc.s 			page 75


 4252 026a 01F4      		brne 1b
 4253 026c 102D      		mov r17,r0
 4254 026e 2DA7      		std Y+45,r18
 4255 0270 3EA7      		std Y+46,r19
 4256 0272 4FA7      		std Y+47,r20
 4257 0274 58AB      		std Y+48,r21
 4258 0276 2415      		cp r18,r4
 4259 0278 3505      		cpc r19,r5
 4260 027a 4605      		cpc r20,r6
 4261 027c 5705      		cpc r21,r7
 4262 027e 00F4      		brsh .+2
 4263 0280 00C0      		rjmp .L298
 4264 0282 382D      		mov r19,r8
 4265 0284 292D      		mov r18,r9
 4266 0286 9A2D      		mov r25,r10
 4267 0288 8B2D      		mov r24,r11
 4268 028a 00C0      		rjmp .L296
 4269               	.L336:
 4270 028c AB8C      		ldd r10,Y+27
 4271 028e BC8C      		ldd r11,Y+28
 4272 0290 B501      		movw r22,r10
 4273 0292 C101      		movw r24,r2
 4274 0294 0E94 0000 		call _ZL8ld_clustP5FATFSPKh
 4275 0298 69AB      		std Y+49,r22
 4276 029a 7AAB      		std Y+50,r23
 4277 029c 8BAB      		std Y+51,r24
 4278 029e 9CAB      		std Y+52,r25
 4279 02a0 D501      		movw r26,r10
 4280 02a2 1E96      		adiw r26,14
 4281 02a4 1C92      		st X,__zero_reg__
 4282 02a6 1E97      		sbiw r26,14
 4283 02a8 1F96      		adiw r26,15
 4284 02aa 1C92      		st X,__zero_reg__
 4285 02ac 1F97      		sbiw r26,15
 4286 02ae 81E2      		ldi r24,lo8(33)
 4287 02b0 5096      		adiw r26,16
 4288 02b2 8C93      		st X,r24
 4289 02b4 5097      		sbiw r26,16
 4290 02b6 8AE4      		ldi r24,lo8(74)
 4291 02b8 5196      		adiw r26,17
 4292 02ba 8C93      		st X,r24
 4293 02bc 5197      		sbiw r26,17
 4294 02be 80E2      		ldi r24,lo8(32)
 4295 02c0 1B96      		adiw r26,11
 4296 02c2 8C93      		st X,r24
 4297 02c4 1B97      		sbiw r26,11
 4298 02c6 5A96      		adiw r26,26
 4299 02c8 1C92      		st X,__zero_reg__
 4300 02ca 5A97      		sbiw r26,26
 4301 02cc 5B96      		adiw r26,27
 4302 02ce 1C92      		st X,__zero_reg__
 4303 02d0 5B97      		sbiw r26,27
 4304 02d2 F101      		movw r30,r2
 4305 02d4 8081      		ld r24,Z
 4306 02d6 8330      		cpi r24,lo8(3)
 4307 02d8 01F0      		breq .L337
 4308               	.L288:
GAS LISTING C:\Users\ANDRLU~1\AppData\Local\Temp\ccpruXkc.s 			page 76


 4309 02da D501      		movw r26,r10
 4310 02dc 5C96      		adiw r26,28
 4311 02de 1C92      		st X,__zero_reg__
 4312 02e0 5C97      		sbiw r26,28
 4313 02e2 5D96      		adiw r26,29
 4314 02e4 1C92      		st X,__zero_reg__
 4315 02e6 5D97      		sbiw r26,29
 4316 02e8 5E96      		adiw r26,30
 4317 02ea 1C92      		st X,__zero_reg__
 4318 02ec 5E97      		sbiw r26,30
 4319 02ee 5F96      		adiw r26,31
 4320 02f0 1C92      		st X,__zero_reg__
 4321 02f2 81E0      		ldi r24,lo8(1)
 4322 02f4 F101      		movw r30,r2
 4323 02f6 8383      		std Z+3,r24
 4324 02f8 29A9      		ldd r18,Y+49
 4325 02fa 3AA9      		ldd r19,Y+50
 4326 02fc 4BA9      		ldd r20,Y+51
 4327 02fe 5CA9      		ldd r21,Y+52
 4328 0300 2115      		cp r18,__zero_reg__
 4329 0302 3105      		cpc r19,__zero_reg__
 4330 0304 4105      		cpc r20,__zero_reg__
 4331 0306 5105      		cpc r21,__zero_reg__
 4332 0308 01F4      		brne .+2
 4333 030a 00C0      		rjmp .L289
 4334 030c 83A5      		ldd r24,Z+43
 4335 030e 94A5      		ldd r25,Z+44
 4336 0310 A5A5      		ldd r26,Z+45
 4337 0312 B6A5      		ldd r27,Z+46
 4338 0314 8FAB      		std Y+55,r24
 4339 0316 98AF      		std Y+56,r25
 4340 0318 A9AF      		std Y+57,r26
 4341 031a BAAF      		std Y+58,r27
 4342 031c 4980      		ldd r4,Y+1
 4343 031e 5A80      		ldd r5,Y+2
 4344 0320 2230      		cpi r18,2
 4345 0322 3105      		cpc r19,__zero_reg__
 4346 0324 4105      		cpc r20,__zero_reg__
 4347 0326 5105      		cpc r21,__zero_reg__
 4348 0328 00F4      		brsh .+2
 4349 032a 00C0      		rjmp .L308
 4350 032c F201      		movw r30,r4
 4351 032e 8389      		ldd r24,Z+19
 4352 0330 9489      		ldd r25,Z+20
 4353 0332 A589      		ldd r26,Z+21
 4354 0334 B689      		ldd r27,Z+22
 4355 0336 2817      		cp r18,r24
 4356 0338 3907      		cpc r19,r25
 4357 033a 4A07      		cpc r20,r26
 4358 033c 5B07      		cpc r21,r27
 4359 033e 00F0      		brlo .+2
 4360 0340 00C0      		rjmp .L309
 4361 0342 4901      		movw r8,r18
 4362 0344 5A01      		movw r10,r20
 4363 0346 DCAE      		std Y+60,r13
 4364 0348 CBAE      		std Y+59,r12
 4365 034a FEAA      		std Y+54,r15
GAS LISTING C:\Users\ANDRLU~1\AppData\Local\Temp\ccpruXkc.s 			page 77


 4366 034c EDAA      		std Y+53,r14
 4367 034e 00C0      		rjmp .L293
 4368               	.L337:
 4369 0350 5496      		adiw r26,20
 4370 0352 1C92      		st X,__zero_reg__
 4371 0354 5497      		sbiw r26,20
 4372 0356 5596      		adiw r26,21
 4373 0358 1C92      		st X,__zero_reg__
 4374 035a 00C0      		rjmp .L288
 4375               	.L292:
 4376 035c 8416      		cp r8,r20
 4377 035e 9506      		cpc r9,r21
 4378 0360 A606      		cpc r10,r22
 4379 0362 B706      		cpc r11,r23
 4380 0364 00F0      		brlo .+2
 4381 0366 00C0      		rjmp .L338
 4382               	.L293:
 4383 0368 D82C      		mov r13,r8
 4384 036a F92C      		mov r15,r9
 4385 036c 6A2C      		mov r6,r10
 4386 036e 7B2C      		mov r7,r11
 4387 0370 B501      		movw r22,r10
 4388 0372 A401      		movw r20,r8
 4389 0374 CE01      		movw r24,r28
 4390 0376 0196      		adiw r24,1
 4391 0378 0E94 0000 		call _ZL7get_fatP7FFOBJIDm
 4392 037c 862E      		mov r8,r22
 4393 037e 972E      		mov r9,r23
 4394 0380 A82E      		mov r10,r24
 4395 0382 B92E      		mov r11,r25
 4396 0384 8114      		cp r8,__zero_reg__
 4397 0386 9104      		cpc r9,__zero_reg__
 4398 0388 A104      		cpc r10,__zero_reg__
 4399 038a B104      		cpc r11,__zero_reg__
 4400 038c 01F4      		brne .+2
 4401 038e 00C0      		rjmp .L330
 4402 0390 F1E0      		ldi r31,1
 4403 0392 8F16      		cp r8,r31
 4404 0394 9104      		cpc r9,__zero_reg__
 4405 0396 A104      		cpc r10,__zero_reg__
 4406 0398 B104      		cpc r11,__zero_reg__
 4407 039a 01F4      		brne .+2
 4408 039c 00C0      		rjmp .L310
 4409 039e 2FEF      		ldi r18,-1
 4410 03a0 8216      		cp r8,r18
 4411 03a2 9206      		cpc r9,r18
 4412 03a4 A206      		cpc r10,r18
 4413 03a6 B206      		cpc r11,r18
 4414 03a8 01F4      		brne .+2
 4415 03aa 00C0      		rjmp .L311
 4416 03ac 00E0      		ldi r16,0
 4417 03ae 10E0      		ldi r17,0
 4418 03b0 9801      		movw r18,r16
 4419 03b2 4D2D      		mov r20,r13
 4420 03b4 5F2D      		mov r21,r15
 4421 03b6 662D      		mov r22,r6
 4422 03b8 772D      		mov r23,r7
GAS LISTING C:\Users\ANDRLU~1\AppData\Local\Temp\ccpruXkc.s 			page 78


 4423 03ba C201      		movw r24,r4
 4424 03bc 0E94 0000 		call _ZL7put_fatP5FATFSmm
 4425 03c0 282F      		mov r18,r24
 4426 03c2 392F      		mov r19,r25
 4427 03c4 2115      		cp r18,__zero_reg__
 4428 03c6 3105      		cpc r19,__zero_reg__
 4429 03c8 01F0      		breq .+2
 4430 03ca 00C0      		rjmp .L312
 4431 03cc F201      		movw r30,r4
 4432 03ce 8785      		ldd r24,Z+15
 4433 03d0 9089      		ldd r25,Z+16
 4434 03d2 A189      		ldd r26,Z+17
 4435 03d4 B289      		ldd r27,Z+18
 4436 03d6 4389      		ldd r20,Z+19
 4437 03d8 5489      		ldd r21,Z+20
 4438 03da 6589      		ldd r22,Z+21
 4439 03dc 7689      		ldd r23,Z+22
 4440 03de 8A01      		movw r16,r20
 4441 03e0 9B01      		movw r18,r22
 4442 03e2 0250      		subi r16,2
 4443 03e4 1109      		sbc r17,__zero_reg__
 4444 03e6 2109      		sbc r18,__zero_reg__
 4445 03e8 3109      		sbc r19,__zero_reg__
 4446 03ea 8017      		cp r24,r16
 4447 03ec 9107      		cpc r25,r17
 4448 03ee A207      		cpc r26,r18
 4449 03f0 B307      		cpc r27,r19
 4450 03f2 00F0      		brlo .+2
 4451 03f4 00C0      		rjmp .L292
 4452 03f6 0196      		adiw r24,1
 4453 03f8 A11D      		adc r26,__zero_reg__
 4454 03fa B11D      		adc r27,__zero_reg__
 4455 03fc 8787      		std Z+15,r24
 4456 03fe 908B      		std Z+16,r25
 4457 0400 A18B      		std Z+17,r26
 4458 0402 B28B      		std Z+18,r27
 4459 0404 8481      		ldd r24,Z+4
 4460 0406 8160      		ori r24,lo8(1)
 4461 0408 8483      		std Z+4,r24
 4462 040a 00C0      		rjmp .L292
 4463               	.L338:
 4464 040c CBAC      		ldd r12,Y+59
 4465 040e DCAC      		ldd r13,Y+60
 4466 0410 EDA8      		ldd r14,Y+53
 4467 0412 FEA8      		ldd r15,Y+54
 4468 0414 00C0      		rjmp .L290
 4469               	.L340:
 4470 0416 8DA5      		ldd r24,Y+45
 4471 0418 9EA5      		ldd r25,Y+46
 4472 041a AFA5      		ldd r26,Y+47
 4473 041c B8A9      		ldd r27,Y+48
 4474 041e 481A      		sub r4,r24
 4475 0420 590A      		sbc r5,r25
 4476 0422 6A0A      		sbc r6,r26
 4477 0424 7B0A      		sbc r7,r27
 4478 0426 8415      		cp r24,r4
 4479 0428 9505      		cpc r25,r5
GAS LISTING C:\Users\ANDRLU~1\AppData\Local\Temp\ccpruXkc.s 			page 79


 4480 042a A605      		cpc r26,r6
 4481 042c B705      		cpc r27,r7
 4482 042e 00F4      		brsh .L339
 4483               	.L298:
 4484 0430 B501      		movw r22,r10
 4485 0432 A401      		movw r20,r8
 4486 0434 C701      		movw r24,r14
 4487 0436 0E94 0000 		call _ZL7get_fatP7FFOBJIDm
 4488 043a 862E      		mov r8,r22
 4489 043c 972E      		mov r9,r23
 4490 043e A82E      		mov r10,r24
 4491 0440 B92E      		mov r11,r25
 4492 0442 32E0      		ldi r19,2
 4493 0444 8316      		cp r8,r19
 4494 0446 9104      		cpc r9,__zero_reg__
 4495 0448 A104      		cpc r10,__zero_reg__
 4496 044a B104      		cpc r11,__zero_reg__
 4497 044c 00F4      		brsh .+2
 4498 044e 00C0      		rjmp .L315
 4499 0450 4FEF      		ldi r20,-1
 4500 0452 8416      		cp r8,r20
 4501 0454 9406      		cpc r9,r20
 4502 0456 A406      		cpc r10,r20
 4503 0458 B406      		cpc r11,r20
 4504 045a 01F4      		brne .L340
 4505 045c CC24      		clr r12
 4506 045e C394      		inc r12
 4507 0460 D12C      		mov r13,__zero_reg__
 4508 0462 00C0      		rjmp .L297
 4509               	.L339:
 4510 0464 382D      		mov r19,r8
 4511 0466 292D      		mov r18,r9
 4512 0468 9A2D      		mov r25,r10
 4513 046a 8B2D      		mov r24,r11
 4514               	.L296:
 4515 046c D701      		movw r26,r14
 4516 046e 5496      		adiw r26,20
 4517 0470 3C93      		st X,r19
 4518 0472 5497      		sbiw r26,20
 4519 0474 5596      		adiw r26,21
 4520 0476 2C93      		st X,r18
 4521 0478 5597      		sbiw r26,21
 4522 047a 5696      		adiw r26,22
 4523 047c 9C93      		st X,r25
 4524 047e 5697      		sbiw r26,22
 4525 0480 5796      		adiw r26,23
 4526 0482 8C93      		st X,r24
 4527 0484 D301      		movw r26,r6
 4528 0486 C201      		movw r24,r4
 4529 0488 9170      		andi r25,1
 4530 048a AA27      		clr r26
 4531 048c BB27      		clr r27
 4532 048e 892B      		or r24,r25
 4533 0490 8A2B      		or r24,r26
 4534 0492 8B2B      		or r24,r27
 4535 0494 01F4      		brne .+2
 4536 0496 00C0      		rjmp .L275
GAS LISTING C:\Users\ANDRLU~1\AppData\Local\Temp\ccpruXkc.s 			page 80


 4537 0498 B501      		movw r22,r10
 4538 049a A401      		movw r20,r8
 4539 049c C101      		movw r24,r2
 4540 049e 0E94 0000 		call _ZL9clst2sectP5FATFSm
 4541 04a2 462F      		mov r20,r22
 4542 04a4 572F      		mov r21,r23
 4543 04a6 682F      		mov r22,r24
 4544 04a8 792F      		mov r23,r25
 4545 04aa 4115      		cp r20,__zero_reg__
 4546 04ac 5105      		cpc r21,__zero_reg__
 4547 04ae 6105      		cpc r22,__zero_reg__
 4548 04b0 7105      		cpc r23,__zero_reg__
 4549 04b2 01F0      		breq .L317
 4550 04b4 D301      		movw r26,r6
 4551 04b6 C201      		movw r24,r4
 4552 04b8 072E      		mov r0,r23
 4553 04ba 79E0      		ldi r23,9
 4554               		1:
 4555 04bc B695      		lsr r27
 4556 04be A795      		ror r26
 4557 04c0 9795      		ror r25
 4558 04c2 8795      		ror r24
 4559 04c4 7A95      		dec r23
 4560 04c6 01F4      		brne 1b
 4561 04c8 702D      		mov r23,r0
 4562 04ca 840F      		add r24,r20
 4563 04cc 951F      		adc r25,r21
 4564 04ce A61F      		adc r26,r22
 4565 04d0 B71F      		adc r27,r23
 4566 04d2 F701      		movw r30,r14
 4567 04d4 808F      		std Z+24,r24
 4568 04d6 918F      		std Z+25,r25
 4569 04d8 A28F      		std Z+26,r26
 4570 04da B38F      		std Z+27,r27
 4571 04dc 00C0      		rjmp .L275
 4572               	.L306:
 4573 04de 0F2E      		mov __tmp_reg__,r31
 4574 04e0 F7E0      		ldi r31,lo8(7)
 4575 04e2 CF2E      		mov r12,r31
 4576 04e4 D12C      		mov r13,__zero_reg__
 4577 04e6 F02D      		mov r31,__tmp_reg__
 4578 04e8 00C0      		rjmp .L277
 4579               	.L308:
 4580 04ea 6894      		set
 4581 04ec CC24      		clr r12
 4582 04ee C1F8      		bld r12,1
 4583 04f0 D12C      		mov r13,__zero_reg__
 4584 04f2 00C0      		rjmp .L277
 4585               	.L309:
 4586 04f4 6894      		set
 4587 04f6 CC24      		clr r12
 4588 04f8 C1F8      		bld r12,1
 4589 04fa D12C      		mov r13,__zero_reg__
 4590 04fc 00C0      		rjmp .L277
 4591               	.L313:
 4592 04fe 0F2E      		mov __tmp_reg__,r31
 4593 0500 F7E0      		ldi r31,lo8(7)
GAS LISTING C:\Users\ANDRLU~1\AppData\Local\Temp\ccpruXkc.s 			page 81


 4594 0502 CF2E      		mov r12,r31
 4595 0504 D12C      		mov r13,__zero_reg__
 4596 0506 F02D      		mov r31,__tmp_reg__
 4597 0508 00C0      		rjmp .L277
 4598               	.L317:
 4599 050a 6894      		set
 4600 050c CC24      		clr r12
 4601 050e C1F8      		bld r12,1
 4602 0510 D12C      		mov r13,__zero_reg__
 4603 0512 00C0      		rjmp .L277
 4604               	.L319:
 4605 0514 6894      		set
 4606 0516 CC24      		clr r12
 4607 0518 C2F8      		bld r12,2
 4608 051a D12C      		mov r13,__zero_reg__
 4609 051c 00C0      		rjmp .L277
 4610               	.L315:
 4611 051e 6894      		set
 4612 0520 CC24      		clr r12
 4613 0522 C1F8      		bld r12,1
 4614 0524 D12C      		mov r13,__zero_reg__
 4615               	.L297:
 4616 0526 F701      		movw r30,r14
 4617 0528 848A      		std Z+20,r8
 4618 052a 958A      		std Z+21,r9
 4619 052c A68A      		std Z+22,r10
 4620 052e B78A      		std Z+23,r11
 4621 0530 00C0      		rjmp .L277
 4622               	.L332:
 4623 0532 1C71      		andi r17,lo8(28)
 4624 0534 1111      		cpse r17,__zero_reg__
 4625 0536 00C0      		rjmp .L318
 4626 0538 26E0      		ldi r18,lo8(6)
 4627 053a 30E0      		ldi r19,0
 4628 053c 00C0      		rjmp .L299
 4629               	.L278:
 4630 053e 1C71      		andi r17,lo8(28)
 4631 0540 1111      		cpse r17,__zero_reg__
 4632 0542 00C0      		rjmp .L300
 4633               	.L299:
 4634 0544 6901      		movw r12,r18
 4635 0546 00C0      		rjmp .L277
 4636               	.L330:
 4637 0548 CBAC      		ldd r12,Y+59
 4638 054a DCAC      		ldd r13,Y+60
 4639 054c EDA8      		ldd r14,Y+53
 4640 054e FEA8      		ldd r15,Y+54
 4641               	.L290:
 4642 0550 4FA9      		ldd r20,Y+55
 4643 0552 58AD      		ldd r21,Y+56
 4644 0554 69AD      		ldd r22,Y+57
 4645 0556 7AAD      		ldd r23,Y+58
 4646 0558 C101      		movw r24,r2
 4647 055a 0E94 0000 		call _ZL11move_windowP5FATFSm
 4648 055e 282F      		mov r18,r24
 4649 0560 392F      		mov r19,r25
 4650 0562 89A9      		ldd r24,Y+49
GAS LISTING C:\Users\ANDRLU~1\AppData\Local\Temp\ccpruXkc.s 			page 82


 4651 0564 9AA9      		ldd r25,Y+50
 4652 0566 ABA9      		ldd r26,Y+51
 4653 0568 BCA9      		ldd r27,Y+52
 4654 056a 0197      		sbiw r24,1
 4655 056c A109      		sbc r26,__zero_reg__
 4656 056e B109      		sbc r27,__zero_reg__
 4657 0570 F101      		movw r30,r2
 4658 0572 8387      		std Z+11,r24
 4659 0574 9487      		std Z+12,r25
 4660 0576 A587      		std Z+13,r26
 4661 0578 B687      		std Z+14,r27
 4662 057a 2115      		cp r18,__zero_reg__
 4663 057c 3105      		cpc r19,__zero_reg__
 4664 057e 01F0      		breq .L289
 4665 0580 6901      		movw r12,r18
 4666 0582 00C0      		rjmp .L277
 4667               	.L310:
 4668 0584 EDA8      		ldd r14,Y+53
 4669 0586 FEA8      		ldd r15,Y+54
 4670 0588 6894      		set
 4671 058a CC24      		clr r12
 4672 058c C1F8      		bld r12,1
 4673 058e D12C      		mov r13,__zero_reg__
 4674 0590 00C0      		rjmp .L277
 4675               	.L311:
 4676 0592 EDA8      		ldd r14,Y+53
 4677 0594 FEA8      		ldd r15,Y+54
 4678 0596 CC24      		clr r12
 4679 0598 C394      		inc r12
 4680 059a D12C      		mov r13,__zero_reg__
 4681 059c 00C0      		rjmp .L277
 4682               	.L312:
 4683 059e EDA8      		ldd r14,Y+53
 4684 05a0 FEA8      		ldd r15,Y+54
 4685 05a2 6901      		movw r12,r18
 4686 05a4 00C0      		rjmp .L277
 4687               	.L305:
 4688 05a6 27E0      		ldi r18,lo8(7)
 4689 05a8 30E0      		ldi r19,0
 4690 05aa 00C0      		rjmp .L281
 4691               	.L318:
 4692 05ac 26E0      		ldi r18,lo8(6)
 4693 05ae 30E0      		ldi r19,0
 4694 05b0 00C0      		rjmp .L281
 4695               	.L333:
 4696 05b2 8D81      		ldd r24,Y+5
 4697 05b4 84FD      		sbrc r24,4
 4698 05b6 00C0      		rjmp .L319
 4699 05b8 11FF      		sbrs r17,1
 4700 05ba 00C0      		rjmp .L294
 4701 05bc 80FD      		sbrc r24,0
 4702 05be 00C0      		rjmp .L313
 4703               	.L294:
 4704 05c0 13FF      		sbrs r17,3
 4705 05c2 00C0      		rjmp .L287
 4706               	.L289:
 4707 05c4 FDA5      		ldd r31,Y+45
GAS LISTING C:\Users\ANDRLU~1\AppData\Local\Temp\ccpruXkc.s 			page 83


 4708 05c6 F064      		ori r31,lo8(64)
 4709 05c8 FDA7      		std Y+45,r31
 4710 05ca 00C0      		rjmp .L287
 4712               		.section	.text.f_read,"ax",@progbits
 4713               	.global	f_read
 4715               	f_read:
 4716 0000 2F92      		push r2
 4717 0002 3F92      		push r3
 4718 0004 4F92      		push r4
 4719 0006 5F92      		push r5
 4720 0008 6F92      		push r6
 4721 000a 7F92      		push r7
 4722 000c 8F92      		push r8
 4723 000e 9F92      		push r9
 4724 0010 AF92      		push r10
 4725 0012 BF92      		push r11
 4726 0014 CF92      		push r12
 4727 0016 DF92      		push r13
 4728 0018 EF92      		push r14
 4729 001a FF92      		push r15
 4730 001c 0F93      		push r16
 4731 001e 1F93      		push r17
 4732 0020 CF93      		push r28
 4733 0022 DF93      		push r29
 4734 0024 00D0      		rcall .
 4735 0026 00D0      		rcall .
 4736 0028 00D0      		rcall .
 4737 002a CDB7      		in r28,__SP_L__
 4738 002c DEB7      		in r29,__SP_H__
 4739               	/* prologue: function */
 4740               	/* frame size = 6 */
 4741               	/* stack size = 24 */
 4742               	.L__stack_usage = 24
 4743 002e E82E      		mov r14,r24
 4744 0030 F92E      		mov r15,r25
 4745 0032 A62E      		mov r10,r22
 4746 0034 B72E      		mov r11,r23
 4747 0036 C42E      		mov r12,r20
 4748 0038 D52E      		mov r13,r21
 4749 003a 2B83      		std Y+3,r18
 4750 003c 3C83      		std Y+4,r19
 4751 003e EB81      		ldd r30,Y+3
 4752 0040 FC81      		ldd r31,Y+4
 4753 0042 1182      		std Z+1,__zero_reg__
 4754 0044 1082      		st Z,__zero_reg__
 4755 0046 BE01      		movw r22,r28
 4756 0048 6F5F      		subi r22,-1
 4757 004a 7F4F      		sbci r23,-1
 4758 004c C701      		movw r24,r14
 4759 004e 0E94 0000 		call _ZL8validateP7FFOBJIDPP5FATFS
 4760 0052 0097      		sbiw r24,0
 4761 0054 01F0      		breq .+2
 4762 0056 00C0      		rjmp .L341
 4763 0058 F701      		movw r30,r14
 4764 005a 2785      		ldd r18,Z+15
 4765 005c 822F      		mov r24,r18
 4766 005e 90E0      		ldi r25,0
GAS LISTING C:\Users\ANDRLU~1\AppData\Local\Temp\ccpruXkc.s 			page 84


 4767 0060 2111      		cpse r18,__zero_reg__
 4768 0062 00C0      		rjmp .L341
 4769 0064 8685      		ldd r24,Z+14
 4770 0066 80FF      		sbrs r24,0
 4771 0068 00C0      		rjmp .L359
 4772 006a 8285      		ldd r24,Z+10
 4773 006c 9385      		ldd r25,Z+11
 4774 006e A485      		ldd r26,Z+12
 4775 0070 B585      		ldd r27,Z+13
 4776 0072 4089      		ldd r20,Z+16
 4777 0074 5189      		ldd r21,Z+17
 4778 0076 6289      		ldd r22,Z+18
 4779 0078 7389      		ldd r23,Z+19
 4780 007a 841B      		sub r24,r20
 4781 007c 950B      		sbc r25,r21
 4782 007e A60B      		sbc r26,r22
 4783 0080 B70B      		sbc r27,r23
 4784 0082 A601      		movw r20,r12
 4785 0084 60E0      		ldi r22,0
 4786 0086 70E0      		ldi r23,0
 4787 0088 8417      		cp r24,r20
 4788 008a 9507      		cpc r25,r21
 4789 008c A607      		cpc r26,r22
 4790 008e B707      		cpc r27,r23
 4791 0090 00F4      		brsh .L343
 4792 0092 6C01      		movw r12,r24
 4793               	.L343:
 4794 0094 C114      		cp r12,__zero_reg__
 4795 0096 D104      		cpc r13,__zero_reg__
 4796 0098 01F4      		brne .+2
 4797 009a 00C0      		rjmp .L360
 4798 009c 812C      		mov r8,__zero_reg__
 4799 009e 6894      		set
 4800 00a0 9924      		clr r9
 4801 00a2 91F8      		bld r9,1
 4802 00a4 00C0      		rjmp .L358
 4803               	.L346:
 4804 00a6 F701      		movw r30,r14
 4805 00a8 4489      		ldd r20,Z+20
 4806 00aa 5589      		ldd r21,Z+21
 4807 00ac 6689      		ldd r22,Z+22
 4808 00ae 7789      		ldd r23,Z+23
 4809 00b0 C701      		movw r24,r14
 4810 00b2 0E94 0000 		call _ZL7get_fatP7FFOBJIDm
 4811 00b6 462F      		mov r20,r22
 4812 00b8 572F      		mov r21,r23
 4813 00ba 682F      		mov r22,r24
 4814 00bc 792F      		mov r23,r25
 4815 00be 00C0      		rjmp .L347
 4816               	.L365:
 4817 00c0 82E0      		ldi r24,lo8(2)
 4818 00c2 F701      		movw r30,r14
 4819 00c4 8787      		std Z+15,r24
 4820 00c6 82E0      		ldi r24,lo8(2)
 4821 00c8 90E0      		ldi r25,0
 4822 00ca 00C0      		rjmp .L341
 4823               	.L366:
GAS LISTING C:\Users\ANDRLU~1\AppData\Local\Temp\ccpruXkc.s 			page 85


 4824 00cc 81E0      		ldi r24,lo8(1)
 4825 00ce F701      		movw r30,r14
 4826 00d0 8787      		std Z+15,r24
 4827 00d2 81E0      		ldi r24,lo8(1)
 4828 00d4 90E0      		ldi r25,0
 4829 00d6 00C0      		rjmp .L341
 4830               	.L367:
 4831 00d8 82E0      		ldi r24,lo8(2)
 4832 00da F701      		movw r30,r14
 4833 00dc 8787      		std Z+15,r24
 4834 00de 82E0      		ldi r24,lo8(2)
 4835 00e0 90E0      		ldi r25,0
 4836 00e2 00C0      		rjmp .L341
 4837               	.L353:
 4838 00e4 F301      		movw r30,r6
 4839 00e6 8381      		ldd r24,Z+3
 4840 00e8 8823      		tst r24
 4841 00ea 01F0      		breq .L354
 4842 00ec 83A5      		ldd r24,Z+43
 4843 00ee 94A5      		ldd r25,Z+44
 4844 00f0 A5A5      		ldd r26,Z+45
 4845 00f2 B6A5      		ldd r27,Z+46
 4846 00f4 8219      		sub r24,r2
 4847 00f6 9309      		sbc r25,r3
 4848 00f8 A409      		sbc r26,r4
 4849 00fa B509      		sbc r27,r5
 4850 00fc 2D81      		ldd r18,Y+5
 4851 00fe 3E81      		ldd r19,Y+6
 4852 0100 A901      		movw r20,r18
 4853 0102 60E0      		ldi r22,0
 4854 0104 70E0      		ldi r23,0
 4855 0106 8417      		cp r24,r20
 4856 0108 9507      		cpc r25,r21
 4857 010a A607      		cpc r26,r22
 4858 010c B707      		cpc r27,r23
 4859 010e 00F0      		brlo .L362
 4860               	.L354:
 4861 0110 0D81      		ldd r16,Y+5
 4862 0112 1E81      		ldd r17,Y+6
 4863 0114 102F      		mov r17,r16
 4864 0116 0027      		clr r16
 4865 0118 110F      		lsl r17
 4866 011a 00C0      		rjmp .L355
 4867               	.L362:
 4868 011c B301      		movw r22,r6
 4869 011e 615D      		subi r22,-47
 4870 0120 7F4F      		sbci r23,-1
 4871 0122 982F      		mov r25,r24
 4872 0124 8827      		clr r24
 4873 0126 990F      		lsl r25
 4874 0128 40E0      		ldi r20,0
 4875 012a 52E0      		ldi r21,lo8(2)
 4876 012c 8A0D      		add r24,r10
 4877 012e 9B1D      		adc r25,r11
 4878 0130 0E94 0000 		call _ZL7mem_cpyPvPKvj
 4879 0134 00C0      		rjmp .L354
 4880               	.L351:
GAS LISTING C:\Users\ANDRLU~1\AppData\Local\Temp\ccpruXkc.s 			page 86


 4881 0136 F701      		movw r30,r14
 4882 0138 208E      		std Z+24,r2
 4883 013a 318E      		std Z+25,r3
 4884 013c 428E      		std Z+26,r4
 4885 013e 538E      		std Z+27,r5
 4886               	.L344:
 4887 0140 F701      		movw r30,r14
 4888 0142 0089      		ldd r16,Z+16
 4889 0144 1189      		ldd r17,Z+17
 4890 0146 1170      		andi r17,1
 4891 0148 9401      		movw r18,r8
 4892 014a 201B      		sub r18,r16
 4893 014c 310B      		sbc r19,r17
 4894 014e 8901      		movw r16,r18
 4895 0150 C216      		cp r12,r18
 4896 0152 D306      		cpc r13,r19
 4897 0154 00F4      		brsh .L356
 4898 0156 8601      		movw r16,r12
 4899               	.L356:
 4900 0158 6980      		ldd r6,Y+1
 4901 015a 7A80      		ldd r7,Y+2
 4902 015c F701      		movw r30,r14
 4903 015e 408D      		ldd r20,Z+24
 4904 0160 518D      		ldd r21,Z+25
 4905 0162 628D      		ldd r22,Z+26
 4906 0164 738D      		ldd r23,Z+27
 4907 0166 C301      		movw r24,r6
 4908 0168 0E94 0000 		call _ZL11move_windowP5FATFSm
 4909 016c 892B      		or r24,r25
 4910 016e 01F0      		breq .+2
 4911 0170 00C0      		rjmp .L363
 4912 0172 B301      		movw r22,r6
 4913 0174 615D      		subi r22,-47
 4914 0176 7F4F      		sbci r23,-1
 4915 0178 F701      		movw r30,r14
 4916 017a 8089      		ldd r24,Z+16
 4917 017c 9189      		ldd r25,Z+17
 4918 017e 9170      		andi r25,1
 4919 0180 680F      		add r22,r24
 4920 0182 791F      		adc r23,r25
 4921 0184 A801      		movw r20,r16
 4922 0186 C501      		movw r24,r10
 4923 0188 0E94 0000 		call _ZL7mem_cpyPvPKvj
 4924               	.L355:
 4925 018c C01A      		sub r12,r16
 4926 018e D10A      		sbc r13,r17
 4927 0190 EB81      		ldd r30,Y+3
 4928 0192 FC81      		ldd r31,Y+4
 4929 0194 8081      		ld r24,Z
 4930 0196 9181      		ldd r25,Z+1
 4931 0198 800F      		add r24,r16
 4932 019a 911F      		adc r25,r17
 4933 019c 9183      		std Z+1,r25
 4934 019e 8083      		st Z,r24
 4935 01a0 A00E      		add r10,r16
 4936 01a2 B11E      		adc r11,r17
 4937 01a4 F701      		movw r30,r14
GAS LISTING C:\Users\ANDRLU~1\AppData\Local\Temp\ccpruXkc.s 			page 87


 4938 01a6 8089      		ldd r24,Z+16
 4939 01a8 9189      		ldd r25,Z+17
 4940 01aa A289      		ldd r26,Z+18
 4941 01ac B389      		ldd r27,Z+19
 4942 01ae 800F      		add r24,r16
 4943 01b0 911F      		adc r25,r17
 4944 01b2 A11D      		adc r26,__zero_reg__
 4945 01b4 B11D      		adc r27,__zero_reg__
 4946 01b6 808B      		std Z+16,r24
 4947 01b8 918B      		std Z+17,r25
 4948 01ba A28B      		std Z+18,r26
 4949 01bc B38B      		std Z+19,r27
 4950 01be C114      		cp r12,__zero_reg__
 4951 01c0 D104      		cpc r13,__zero_reg__
 4952 01c2 01F4      		brne .+2
 4953 01c4 00C0      		rjmp .L364
 4954               	.L358:
 4955 01c6 F701      		movw r30,r14
 4956 01c8 8089      		ldd r24,Z+16
 4957 01ca 9189      		ldd r25,Z+17
 4958 01cc A289      		ldd r26,Z+18
 4959 01ce B389      		ldd r27,Z+19
 4960 01d0 AC01      		movw r20,r24
 4961 01d2 BD01      		movw r22,r26
 4962 01d4 5170      		andi r21,1
 4963 01d6 6627      		clr r22
 4964 01d8 7727      		clr r23
 4965 01da 452B      		or r20,r21
 4966 01dc 462B      		or r20,r22
 4967 01de 472B      		or r20,r23
 4968 01e0 01F0      		breq .+2
 4969 01e2 00C0      		rjmp .L344
 4970 01e4 6980      		ldd r6,Y+1
 4971 01e6 7A80      		ldd r7,Y+2
 4972 01e8 F301      		movw r30,r6
 4973 01ea 0185      		ldd r16,Z+9
 4974 01ec 1285      		ldd r17,Z+10
 4975 01ee 0150      		subi r16,1
 4976 01f0 1109      		sbc r17,__zero_reg__
 4977 01f2 AC01      		movw r20,r24
 4978 01f4 BD01      		movw r22,r26
 4979 01f6 032E      		mov r0,r19
 4980 01f8 39E0      		ldi r19,9
 4981               		1:
 4982 01fa 7695      		lsr r23
 4983 01fc 6795      		ror r22
 4984 01fe 5795      		ror r21
 4985 0200 4795      		ror r20
 4986 0202 3A95      		dec r19
 4987 0204 01F4      		brne 1b
 4988 0206 302D      		mov r19,r0
 4989 0208 0423      		and r16,r20
 4990 020a 1523      		and r17,r21
 4991 020c 0115      		cp r16,__zero_reg__
 4992 020e 1105      		cpc r17,__zero_reg__
 4993 0210 01F4      		brne .L345
 4994 0212 892B      		or r24,r25
GAS LISTING C:\Users\ANDRLU~1\AppData\Local\Temp\ccpruXkc.s 			page 88


 4995 0214 8A2B      		or r24,r26
 4996 0216 8B2B      		or r24,r27
 4997 0218 01F0      		breq .+2
 4998 021a 00C0      		rjmp .L346
 4999 021c F701      		movw r30,r14
 5000 021e 4681      		ldd r20,Z+6
 5001 0220 5781      		ldd r21,Z+7
 5002 0222 6085      		ldd r22,Z+8
 5003 0224 7185      		ldd r23,Z+9
 5004               	.L347:
 5005 0226 4230      		cpi r20,2
 5006 0228 5105      		cpc r21,__zero_reg__
 5007 022a 6105      		cpc r22,__zero_reg__
 5008 022c 7105      		cpc r23,__zero_reg__
 5009 022e 00F4      		brsh .+2
 5010 0230 00C0      		rjmp .L365
 5011 0232 4F3F      		cpi r20,-1
 5012 0234 FFEF      		ldi r31,-1
 5013 0236 5F07      		cpc r21,r31
 5014 0238 6F07      		cpc r22,r31
 5015 023a 7F07      		cpc r23,r31
 5016 023c 01F4      		brne .+2
 5017 023e 00C0      		rjmp .L366
 5018 0240 F701      		movw r30,r14
 5019 0242 448B      		std Z+20,r20
 5020 0244 558B      		std Z+21,r21
 5021 0246 668B      		std Z+22,r22
 5022 0248 778B      		std Z+23,r23
 5023               	.L345:
 5024 024a F701      		movw r30,r14
 5025 024c 4489      		ldd r20,Z+20
 5026 024e 5589      		ldd r21,Z+21
 5027 0250 6689      		ldd r22,Z+22
 5028 0252 7789      		ldd r23,Z+23
 5029 0254 C301      		movw r24,r6
 5030 0256 0E94 0000 		call _ZL9clst2sectP5FATFSm
 5031 025a 262E      		mov r2,r22
 5032 025c 372E      		mov r3,r23
 5033 025e 482E      		mov r4,r24
 5034 0260 592E      		mov r5,r25
 5035 0262 2114      		cp r2,__zero_reg__
 5036 0264 3104      		cpc r3,__zero_reg__
 5037 0266 4104      		cpc r4,__zero_reg__
 5038 0268 5104      		cpc r5,__zero_reg__
 5039 026a 01F4      		brne .+2
 5040 026c 00C0      		rjmp .L367
 5041 026e 200E      		add r2,r16
 5042 0270 311E      		adc r3,r17
 5043 0272 411C      		adc r4,__zero_reg__
 5044 0274 511C      		adc r5,__zero_reg__
 5045 0276 C114      		cp r12,__zero_reg__
 5046 0278 F2E0      		ldi r31,2
 5047 027a DF06      		cpc r13,r31
 5048 027c 00F4      		brsh .+2
 5049 027e 00C0      		rjmp .L351
 5050 0280 9601      		movw r18,r12
 5051 0282 232F      		mov r18,r19
GAS LISTING C:\Users\ANDRLU~1\AppData\Local\Temp\ccpruXkc.s 			page 89


 5052 0284 3327      		clr r19
 5053 0286 2695      		lsr r18
 5054 0288 3E83      		std Y+6,r19
 5055 028a 2D83      		std Y+5,r18
 5056 028c F301      		movw r30,r6
 5057 028e 8185      		ldd r24,Z+9
 5058 0290 9285      		ldd r25,Z+10
 5059 0292 200F      		add r18,r16
 5060 0294 311F      		adc r19,r17
 5061 0296 8217      		cp r24,r18
 5062 0298 9307      		cpc r25,r19
 5063 029a 00F4      		brsh .L352
 5064 029c 9C01      		movw r18,r24
 5065 029e 201B      		sub r18,r16
 5066 02a0 310B      		sbc r19,r17
 5067 02a2 3E83      		std Y+6,r19
 5068 02a4 2D83      		std Y+5,r18
 5069               	.L352:
 5070 02a6 0D81      		ldd r16,Y+5
 5071 02a8 1E81      		ldd r17,Y+6
 5072 02aa A201      		movw r20,r4
 5073 02ac 9101      		movw r18,r2
 5074 02ae B501      		movw r22,r10
 5075 02b0 F301      		movw r30,r6
 5076 02b2 8181      		ldd r24,Z+1
 5077 02b4 0E94 0000 		call disk_read
 5078 02b8 892B      		or r24,r25
 5079 02ba 01F4      		brne .+2
 5080 02bc 00C0      		rjmp .L353
 5081 02be 81E0      		ldi r24,lo8(1)
 5082 02c0 F701      		movw r30,r14
 5083 02c2 8787      		std Z+15,r24
 5084 02c4 81E0      		ldi r24,lo8(1)
 5085 02c6 90E0      		ldi r25,0
 5086               	.L341:
 5087               	/* epilogue start */
 5088 02c8 0F90      		pop __tmp_reg__
 5089 02ca 0F90      		pop __tmp_reg__
 5090 02cc 0F90      		pop __tmp_reg__
 5091 02ce 0F90      		pop __tmp_reg__
 5092 02d0 0F90      		pop __tmp_reg__
 5093 02d2 0F90      		pop __tmp_reg__
 5094 02d4 DF91      		pop r29
 5095 02d6 CF91      		pop r28
 5096 02d8 1F91      		pop r17
 5097 02da 0F91      		pop r16
 5098 02dc FF90      		pop r15
 5099 02de EF90      		pop r14
 5100 02e0 DF90      		pop r13
 5101 02e2 CF90      		pop r12
 5102 02e4 BF90      		pop r11
 5103 02e6 AF90      		pop r10
 5104 02e8 9F90      		pop r9
 5105 02ea 8F90      		pop r8
 5106 02ec 7F90      		pop r7
 5107 02ee 6F90      		pop r6
 5108 02f0 5F90      		pop r5
GAS LISTING C:\Users\ANDRLU~1\AppData\Local\Temp\ccpruXkc.s 			page 90


 5109 02f2 4F90      		pop r4
 5110 02f4 3F90      		pop r3
 5111 02f6 2F90      		pop r2
 5112 02f8 0895      		ret
 5113               	.L363:
 5114 02fa 81E0      		ldi r24,lo8(1)
 5115 02fc F701      		movw r30,r14
 5116 02fe 8787      		std Z+15,r24
 5117 0300 81E0      		ldi r24,lo8(1)
 5118 0302 90E0      		ldi r25,0
 5119 0304 00C0      		rjmp .L341
 5120               	.L364:
 5121 0306 C601      		movw r24,r12
 5122 0308 00C0      		rjmp .L341
 5123               	.L359:
 5124 030a 87E0      		ldi r24,lo8(7)
 5125 030c 90E0      		ldi r25,0
 5126 030e 00C0      		rjmp .L341
 5127               	.L360:
 5128 0310 C601      		movw r24,r12
 5129 0312 00C0      		rjmp .L341
 5131               		.section	.text.f_write,"ax",@progbits
 5132               	.global	f_write
 5134               	f_write:
 5135 0000 2F92      		push r2
 5136 0002 3F92      		push r3
 5137 0004 4F92      		push r4
 5138 0006 5F92      		push r5
 5139 0008 6F92      		push r6
 5140 000a 7F92      		push r7
 5141 000c 8F92      		push r8
 5142 000e 9F92      		push r9
 5143 0010 AF92      		push r10
 5144 0012 BF92      		push r11
 5145 0014 CF92      		push r12
 5146 0016 DF92      		push r13
 5147 0018 EF92      		push r14
 5148 001a FF92      		push r15
 5149 001c 0F93      		push r16
 5150 001e 1F93      		push r17
 5151 0020 CF93      		push r28
 5152 0022 DF93      		push r29
 5153 0024 00D0      		rcall .
 5154 0026 00D0      		rcall .
 5155 0028 00D0      		rcall .
 5156 002a CDB7      		in r28,__SP_L__
 5157 002c DEB7      		in r29,__SP_H__
 5158               	/* prologue: function */
 5159               	/* frame size = 6 */
 5160               	/* stack size = 24 */
 5161               	.L__stack_usage = 24
 5162 002e E82E      		mov r14,r24
 5163 0030 F92E      		mov r15,r25
 5164 0032 A62E      		mov r10,r22
 5165 0034 B72E      		mov r11,r23
 5166 0036 C42E      		mov r12,r20
 5167 0038 D52E      		mov r13,r21
GAS LISTING C:\Users\ANDRLU~1\AppData\Local\Temp\ccpruXkc.s 			page 91


 5168 003a 2B83      		std Y+3,r18
 5169 003c 3C83      		std Y+4,r19
 5170 003e AB81      		ldd r26,Y+3
 5171 0040 BC81      		ldd r27,Y+4
 5172 0042 1D92      		st X+,__zero_reg__
 5173 0044 1C92      		st X,__zero_reg__
 5174 0046 BE01      		movw r22,r28
 5175 0048 6F5F      		subi r22,-1
 5176 004a 7F4F      		sbci r23,-1
 5177 004c C701      		movw r24,r14
 5178 004e 0E94 0000 		call _ZL8validateP7FFOBJIDPP5FATFS
 5179 0052 882E      		mov r8,r24
 5180 0054 992E      		mov r9,r25
 5181 0056 8114      		cp r8,__zero_reg__
 5182 0058 9104      		cpc r9,__zero_reg__
 5183 005a 01F0      		breq .+2
 5184 005c 00C0      		rjmp .L368
 5185 005e F701      		movw r30,r14
 5186 0060 8785      		ldd r24,Z+15
 5187 0062 882E      		mov r8,r24
 5188 0064 912C      		mov r9,__zero_reg__
 5189 0066 8111      		cpse r24,__zero_reg__
 5190 0068 00C0      		rjmp .L368
 5191 006a 8685      		ldd r24,Z+14
 5192 006c 81FF      		sbrs r24,1
 5193 006e 00C0      		rjmp .L394
 5194 0070 8089      		ldd r24,Z+16
 5195 0072 9189      		ldd r25,Z+17
 5196 0074 A289      		ldd r26,Z+18
 5197 0076 B389      		ldd r27,Z+19
 5198 0078 AC01      		movw r20,r24
 5199 007a BD01      		movw r22,r26
 5200 007c 4C0D      		add r20,r12
 5201 007e 5D1D      		adc r21,r13
 5202 0080 611D      		adc r22,__zero_reg__
 5203 0082 711D      		adc r23,__zero_reg__
 5204 0084 4817      		cp r20,r24
 5205 0086 5907      		cpc r21,r25
 5206 0088 6A07      		cpc r22,r26
 5207 008a 7B07      		cpc r23,r27
 5208 008c 00F4      		brsh .L370
 5209 008e 6C01      		movw r12,r24
 5210 0090 C094      		com r12
 5211 0092 D094      		com r13
 5212               	.L370:
 5213 0094 C114      		cp r12,__zero_reg__
 5214 0096 D104      		cpc r13,__zero_reg__
 5215 0098 01F0      		breq .+2
 5216 009a 00C0      		rjmp .L393
 5217               	.L371:
 5218 009c F701      		movw r30,r14
 5219 009e 8685      		ldd r24,Z+14
 5220 00a0 8064      		ori r24,lo8(64)
 5221 00a2 8687      		std Z+14,r24
 5222 00a4 00C0      		rjmp .L368
 5223               	.L374:
 5224 00a6 F701      		movw r30,r14
GAS LISTING C:\Users\ANDRLU~1\AppData\Local\Temp\ccpruXkc.s 			page 92


 5225 00a8 4489      		ldd r20,Z+20
 5226 00aa 5589      		ldd r21,Z+21
 5227 00ac 6689      		ldd r22,Z+22
 5228 00ae 7789      		ldd r23,Z+23
 5229 00b0 C701      		movw r24,r14
 5230 00b2 0E94 0000 		call _ZL12create_chainP7FFOBJIDm
 5231 00b6 462F      		mov r20,r22
 5232 00b8 572F      		mov r21,r23
 5233 00ba 682F      		mov r22,r24
 5234 00bc 792F      		mov r23,r25
 5235               	.L376:
 5236 00be 4115      		cp r20,__zero_reg__
 5237 00c0 5105      		cpc r21,__zero_reg__
 5238 00c2 6105      		cpc r22,__zero_reg__
 5239 00c4 7105      		cpc r23,__zero_reg__
 5240 00c6 01F0      		breq .L371
 5241               	.L375:
 5242 00c8 4130      		cpi r20,1
 5243 00ca 5105      		cpc r21,__zero_reg__
 5244 00cc 6105      		cpc r22,__zero_reg__
 5245 00ce 7105      		cpc r23,__zero_reg__
 5246 00d0 01F4      		brne .+2
 5247 00d2 00C0      		rjmp .L397
 5248 00d4 4F3F      		cpi r20,-1
 5249 00d6 BFEF      		ldi r27,-1
 5250 00d8 5B07      		cpc r21,r27
 5251 00da 6B07      		cpc r22,r27
 5252 00dc 7B07      		cpc r23,r27
 5253 00de 01F4      		brne .+2
 5254 00e0 00C0      		rjmp .L398
 5255 00e2 D701      		movw r26,r14
 5256 00e4 5496      		adiw r26,20
 5257 00e6 4D93      		st X+,r20
 5258 00e8 5D93      		st X+,r21
 5259 00ea 6D93      		st X+,r22
 5260 00ec 7C93      		st X,r23
 5261 00ee 5797      		sbiw r26,20+3
 5262 00f0 1696      		adiw r26,6
 5263 00f2 8D91      		ld r24,X+
 5264 00f4 9D91      		ld r25,X+
 5265 00f6 0D90      		ld __tmp_reg__,X+
 5266 00f8 BC91      		ld r27,X
 5267 00fa A02D      		mov r26,__tmp_reg__
 5268 00fc 892B      		or r24,r25
 5269 00fe 8A2B      		or r24,r26
 5270 0100 8B2B      		or r24,r27
 5271 0102 01F4      		brne .L373
 5272 0104 F701      		movw r30,r14
 5273 0106 4683      		std Z+6,r20
 5274 0108 5783      		std Z+7,r21
 5275 010a 6087      		std Z+8,r22
 5276 010c 7187      		std Z+9,r23
 5277               	.L373:
 5278 010e D101      		movw r26,r2
 5279 0110 9B96      		adiw r26,43
 5280 0112 4D91      		ld r20,X+
 5281 0114 5D91      		ld r21,X+
GAS LISTING C:\Users\ANDRLU~1\AppData\Local\Temp\ccpruXkc.s 			page 93


 5282 0116 6D91      		ld r22,X+
 5283 0118 7C91      		ld r23,X
 5284 011a 9E97      		sbiw r26,43+3
 5285 011c F701      		movw r30,r14
 5286 011e 808D      		ldd r24,Z+24
 5287 0120 918D      		ldd r25,Z+25
 5288 0122 A28D      		ldd r26,Z+26
 5289 0124 B38D      		ldd r27,Z+27
 5290 0126 4817      		cp r20,r24
 5291 0128 5907      		cpc r21,r25
 5292 012a 6A07      		cpc r22,r26
 5293 012c 7B07      		cpc r23,r27
 5294 012e 01F4      		brne .+2
 5295 0130 00C0      		rjmp .L399
 5296               	.L379:
 5297 0132 D701      		movw r26,r14
 5298 0134 5496      		adiw r26,20
 5299 0136 4D91      		ld r20,X+
 5300 0138 5D91      		ld r21,X+
 5301 013a 6D91      		ld r22,X+
 5302 013c 7C91      		ld r23,X
 5303 013e 5797      		sbiw r26,20+3
 5304 0140 C101      		movw r24,r2
 5305 0142 0E94 0000 		call _ZL9clst2sectP5FATFSm
 5306 0146 462E      		mov r4,r22
 5307 0148 572E      		mov r5,r23
 5308 014a 682E      		mov r6,r24
 5309 014c 792E      		mov r7,r25
 5310 014e 4114      		cp r4,__zero_reg__
 5311 0150 5104      		cpc r5,__zero_reg__
 5312 0152 6104      		cpc r6,__zero_reg__
 5313 0154 7104      		cpc r7,__zero_reg__
 5314 0156 01F4      		brne .+2
 5315 0158 00C0      		rjmp .L400
 5316 015a 400E      		add r4,r16
 5317 015c 511E      		adc r5,r17
 5318 015e 611C      		adc r6,__zero_reg__
 5319 0160 711C      		adc r7,__zero_reg__
 5320 0162 C114      		cp r12,__zero_reg__
 5321 0164 B2E0      		ldi r27,2
 5322 0166 DB06      		cpc r13,r27
 5323 0168 00F4      		brsh .+2
 5324 016a 00C0      		rjmp .L383
 5325 016c F601      		movw r30,r12
 5326 016e EF2F      		mov r30,r31
 5327 0170 FF27      		clr r31
 5328 0172 E695      		lsr r30
 5329 0174 FE83      		std Y+6,r31
 5330 0176 ED83      		std Y+5,r30
 5331 0178 D101      		movw r26,r2
 5332 017a 1996      		adiw r26,9
 5333 017c 8D91      		ld r24,X+
 5334 017e 9C91      		ld r25,X
 5335 0180 9F01      		movw r18,r30
 5336 0182 200F      		add r18,r16
 5337 0184 311F      		adc r19,r17
 5338 0186 8217      		cp r24,r18
GAS LISTING C:\Users\ANDRLU~1\AppData\Local\Temp\ccpruXkc.s 			page 94


 5339 0188 9307      		cpc r25,r19
 5340 018a 00F4      		brsh .L384
 5341 018c FC01      		movw r30,r24
 5342 018e E01B      		sub r30,r16
 5343 0190 F10B      		sbc r31,r17
 5344 0192 FE83      		std Y+6,r31
 5345 0194 ED83      		std Y+5,r30
 5346               	.L384:
 5347 0196 0D81      		ldd r16,Y+5
 5348 0198 1E81      		ldd r17,Y+6
 5349 019a A301      		movw r20,r6
 5350 019c 9201      		movw r18,r4
 5351 019e B501      		movw r22,r10
 5352 01a0 D101      		movw r26,r2
 5353 01a2 1196      		adiw r26,1
 5354 01a4 8C91      		ld r24,X
 5355 01a6 0E94 0000 		call disk_write
 5356 01aa 892B      		or r24,r25
 5357 01ac 01F4      		brne .+2
 5358 01ae 00C0      		rjmp .L385
 5359 01b0 81E0      		ldi r24,lo8(1)
 5360 01b2 F701      		movw r30,r14
 5361 01b4 8787      		std Z+15,r24
 5362 01b6 8824      		clr r8
 5363 01b8 8394      		inc r8
 5364 01ba 912C      		mov r9,__zero_reg__
 5365               	.L368:
 5366 01bc C401      		movw r24,r8
 5367               	/* epilogue start */
 5368 01be 0F90      		pop __tmp_reg__
 5369 01c0 0F90      		pop __tmp_reg__
 5370 01c2 0F90      		pop __tmp_reg__
 5371 01c4 0F90      		pop __tmp_reg__
 5372 01c6 0F90      		pop __tmp_reg__
 5373 01c8 0F90      		pop __tmp_reg__
 5374 01ca DF91      		pop r29
 5375 01cc CF91      		pop r28
 5376 01ce 1F91      		pop r17
 5377 01d0 0F91      		pop r16
 5378 01d2 FF90      		pop r15
 5379 01d4 EF90      		pop r14
 5380 01d6 DF90      		pop r13
 5381 01d8 CF90      		pop r12
 5382 01da BF90      		pop r11
 5383 01dc AF90      		pop r10
 5384 01de 9F90      		pop r9
 5385 01e0 8F90      		pop r8
 5386 01e2 7F90      		pop r7
 5387 01e4 6F90      		pop r6
 5388 01e6 5F90      		pop r5
 5389 01e8 4F90      		pop r4
 5390 01ea 3F90      		pop r3
 5391 01ec 2F90      		pop r2
 5392 01ee 0895      		ret
 5393               	.L397:
 5394 01f0 82E0      		ldi r24,lo8(2)
 5395 01f2 D701      		movw r26,r14
GAS LISTING C:\Users\ANDRLU~1\AppData\Local\Temp\ccpruXkc.s 			page 95


 5396 01f4 1F96      		adiw r26,15
 5397 01f6 8C93      		st X,r24
 5398 01f8 6894      		set
 5399 01fa 8824      		clr r8
 5400 01fc 81F8      		bld r8,1
 5401 01fe 912C      		mov r9,__zero_reg__
 5402 0200 00C0      		rjmp .L368
 5403               	.L398:
 5404 0202 81E0      		ldi r24,lo8(1)
 5405 0204 F701      		movw r30,r14
 5406 0206 8787      		std Z+15,r24
 5407 0208 8824      		clr r8
 5408 020a 8394      		inc r8
 5409 020c 912C      		mov r9,__zero_reg__
 5410 020e 00C0      		rjmp .L368
 5411               	.L399:
 5412 0210 C101      		movw r24,r2
 5413 0212 0E94 0000 		call _ZL11sync_windowP5FATFS
 5414 0216 892B      		or r24,r25
 5415 0218 01F4      		brne .+2
 5416 021a 00C0      		rjmp .L379
 5417 021c 81E0      		ldi r24,lo8(1)
 5418 021e F701      		movw r30,r14
 5419 0220 8787      		std Z+15,r24
 5420 0222 8824      		clr r8
 5421 0224 8394      		inc r8
 5422 0226 912C      		mov r9,__zero_reg__
 5423 0228 00C0      		rjmp .L368
 5424               	.L400:
 5425 022a 82E0      		ldi r24,lo8(2)
 5426 022c D701      		movw r26,r14
 5427 022e 1F96      		adiw r26,15
 5428 0230 8C93      		st X,r24
 5429 0232 6894      		set
 5430 0234 8824      		clr r8
 5431 0236 81F8      		bld r8,1
 5432 0238 912C      		mov r9,__zero_reg__
 5433 023a 00C0      		rjmp .L368
 5434               	.L385:
 5435 023c F101      		movw r30,r2
 5436 023e 83A5      		ldd r24,Z+43
 5437 0240 94A5      		ldd r25,Z+44
 5438 0242 A5A5      		ldd r26,Z+45
 5439 0244 B6A5      		ldd r27,Z+46
 5440 0246 8419      		sub r24,r4
 5441 0248 9509      		sbc r25,r5
 5442 024a A609      		sbc r26,r6
 5443 024c B709      		sbc r27,r7
 5444 024e 2D81      		ldd r18,Y+5
 5445 0250 3E81      		ldd r19,Y+6
 5446 0252 A901      		movw r20,r18
 5447 0254 60E0      		ldi r22,0
 5448 0256 70E0      		ldi r23,0
 5449 0258 8417      		cp r24,r20
 5450 025a 9507      		cpc r25,r21
 5451 025c A607      		cpc r26,r22
 5452 025e B707      		cpc r27,r23
GAS LISTING C:\Users\ANDRLU~1\AppData\Local\Temp\ccpruXkc.s 			page 96


 5453 0260 00F0      		brlo .L401
 5454               	.L386:
 5455 0262 0D81      		ldd r16,Y+5
 5456 0264 1E81      		ldd r17,Y+6
 5457 0266 102F      		mov r17,r16
 5458 0268 0027      		clr r16
 5459 026a 110F      		lsl r17
 5460 026c 00C0      		rjmp .L387
 5461               	.L401:
 5462 026e BC01      		movw r22,r24
 5463 0270 762F      		mov r23,r22
 5464 0272 6627      		clr r22
 5465 0274 770F      		lsl r23
 5466 0276 6A0D      		add r22,r10
 5467 0278 7B1D      		adc r23,r11
 5468 027a 40E0      		ldi r20,0
 5469 027c 52E0      		ldi r21,lo8(2)
 5470 027e C101      		movw r24,r2
 5471 0280 8F96      		adiw r24,47
 5472 0282 0E94 0000 		call _ZL7mem_cpyPvPKvj
 5473 0286 D101      		movw r26,r2
 5474 0288 1396      		adiw r26,3
 5475 028a 1C92      		st X,__zero_reg__
 5476 028c 00C0      		rjmp .L386
 5477               	.L383:
 5478 028e F701      		movw r30,r14
 5479 0290 4089      		ldd r20,Z+16
 5480 0292 5189      		ldd r21,Z+17
 5481 0294 6289      		ldd r22,Z+18
 5482 0296 7389      		ldd r23,Z+19
 5483 0298 8285      		ldd r24,Z+10
 5484 029a 9385      		ldd r25,Z+11
 5485 029c A485      		ldd r26,Z+12
 5486 029e B585      		ldd r27,Z+13
 5487 02a0 4817      		cp r20,r24
 5488 02a2 5907      		cpc r21,r25
 5489 02a4 6A07      		cpc r22,r26
 5490 02a6 7B07      		cpc r23,r27
 5491 02a8 00F0      		brlo .+2
 5492 02aa 00C0      		rjmp .L402
 5493               	.L388:
 5494 02ac D701      		movw r26,r14
 5495 02ae 5896      		adiw r26,24
 5496 02b0 4D92      		st X+,r4
 5497 02b2 5D92      		st X+,r5
 5498 02b4 6D92      		st X+,r6
 5499 02b6 7C92      		st X,r7
 5500 02b8 5B97      		sbiw r26,24+3
 5501               	.L372:
 5502 02ba F701      		movw r30,r14
 5503 02bc 0089      		ldd r16,Z+16
 5504 02be 1189      		ldd r17,Z+17
 5505 02c0 1170      		andi r17,1
 5506 02c2 20E0      		ldi r18,0
 5507 02c4 32E0      		ldi r19,lo8(2)
 5508 02c6 201B      		sub r18,r16
 5509 02c8 310B      		sbc r19,r17
GAS LISTING C:\Users\ANDRLU~1\AppData\Local\Temp\ccpruXkc.s 			page 97


 5510 02ca 8901      		movw r16,r18
 5511 02cc C216      		cp r12,r18
 5512 02ce D306      		cpc r13,r19
 5513 02d0 00F4      		brsh .L390
 5514 02d2 8601      		movw r16,r12
 5515               	.L390:
 5516 02d4 6980      		ldd r6,Y+1
 5517 02d6 7A80      		ldd r7,Y+2
 5518 02d8 D701      		movw r26,r14
 5519 02da 5896      		adiw r26,24
 5520 02dc 4D91      		ld r20,X+
 5521 02de 5D91      		ld r21,X+
 5522 02e0 6D91      		ld r22,X+
 5523 02e2 7C91      		ld r23,X
 5524 02e4 5B97      		sbiw r26,24+3
 5525 02e6 C301      		movw r24,r6
 5526 02e8 0E94 0000 		call _ZL11move_windowP5FATFSm
 5527 02ec 892B      		or r24,r25
 5528 02ee 01F0      		breq .+2
 5529 02f0 00C0      		rjmp .L403
 5530 02f2 F301      		movw r30,r6
 5531 02f4 BF96      		adiw r30,47
 5532 02f6 D701      		movw r26,r14
 5533 02f8 5096      		adiw r26,16
 5534 02fa 8D91      		ld r24,X+
 5535 02fc 9C91      		ld r25,X
 5536 02fe 9170      		andi r25,1
 5537 0300 A801      		movw r20,r16
 5538 0302 B501      		movw r22,r10
 5539 0304 8E0F      		add r24,r30
 5540 0306 9F1F      		adc r25,r31
 5541 0308 0E94 0000 		call _ZL7mem_cpyPvPKvj
 5542 030c 21E0      		ldi r18,lo8(1)
 5543 030e F301      		movw r30,r6
 5544 0310 2383      		std Z+3,r18
 5545               	.L387:
 5546 0312 C01A      		sub r12,r16
 5547 0314 D10A      		sbc r13,r17
 5548 0316 AB81      		ldd r26,Y+3
 5549 0318 BC81      		ldd r27,Y+4
 5550 031a 8D91      		ld r24,X+
 5551 031c 9C91      		ld r25,X
 5552 031e 1197      		sbiw r26,1
 5553 0320 800F      		add r24,r16
 5554 0322 911F      		adc r25,r17
 5555 0324 8D93      		st X+,r24
 5556 0326 9C93      		st X,r25
 5557 0328 A00E      		add r10,r16
 5558 032a B11E      		adc r11,r17
 5559 032c F701      		movw r30,r14
 5560 032e 8089      		ldd r24,Z+16
 5561 0330 9189      		ldd r25,Z+17
 5562 0332 A289      		ldd r26,Z+18
 5563 0334 B389      		ldd r27,Z+19
 5564 0336 800F      		add r24,r16
 5565 0338 911F      		adc r25,r17
 5566 033a A11D      		adc r26,__zero_reg__
GAS LISTING C:\Users\ANDRLU~1\AppData\Local\Temp\ccpruXkc.s 			page 98


 5567 033c B11D      		adc r27,__zero_reg__
 5568 033e 808B      		std Z+16,r24
 5569 0340 918B      		std Z+17,r25
 5570 0342 A28B      		std Z+18,r26
 5571 0344 B38B      		std Z+19,r27
 5572 0346 4285      		ldd r20,Z+10
 5573 0348 5385      		ldd r21,Z+11
 5574 034a 6485      		ldd r22,Z+12
 5575 034c 7585      		ldd r23,Z+13
 5576 034e 4817      		cp r20,r24
 5577 0350 5907      		cpc r21,r25
 5578 0352 6A07      		cpc r22,r26
 5579 0354 7B07      		cpc r23,r27
 5580 0356 00F4      		brsh .L392
 5581 0358 AC01      		movw r20,r24
 5582 035a BD01      		movw r22,r26
 5583               	.L392:
 5584 035c D701      		movw r26,r14
 5585 035e 1A96      		adiw r26,10
 5586 0360 4D93      		st X+,r20
 5587 0362 5D93      		st X+,r21
 5588 0364 6D93      		st X+,r22
 5589 0366 7C93      		st X,r23
 5590 0368 1D97      		sbiw r26,10+3
 5591 036a C114      		cp r12,__zero_reg__
 5592 036c D104      		cpc r13,__zero_reg__
 5593 036e 01F4      		brne .+2
 5594 0370 00C0      		rjmp .L371
 5595               	.L393:
 5596 0372 F701      		movw r30,r14
 5597 0374 8089      		ldd r24,Z+16
 5598 0376 9189      		ldd r25,Z+17
 5599 0378 A289      		ldd r26,Z+18
 5600 037a B389      		ldd r27,Z+19
 5601 037c AC01      		movw r20,r24
 5602 037e BD01      		movw r22,r26
 5603 0380 5170      		andi r21,1
 5604 0382 6627      		clr r22
 5605 0384 7727      		clr r23
 5606 0386 452B      		or r20,r21
 5607 0388 462B      		or r20,r22
 5608 038a 472B      		or r20,r23
 5609 038c 01F0      		breq .+2
 5610 038e 00C0      		rjmp .L372
 5611 0390 2980      		ldd r2,Y+1
 5612 0392 3A80      		ldd r3,Y+2
 5613 0394 F101      		movw r30,r2
 5614 0396 0185      		ldd r16,Z+9
 5615 0398 1285      		ldd r17,Z+10
 5616 039a 0150      		subi r16,1
 5617 039c 1109      		sbc r17,__zero_reg__
 5618 039e AC01      		movw r20,r24
 5619 03a0 BD01      		movw r22,r26
 5620 03a2 032E      		mov r0,r19
 5621 03a4 39E0      		ldi r19,9
 5622               		1:
 5623 03a6 7695      		lsr r23
GAS LISTING C:\Users\ANDRLU~1\AppData\Local\Temp\ccpruXkc.s 			page 99


 5624 03a8 6795      		ror r22
 5625 03aa 5795      		ror r21
 5626 03ac 4795      		ror r20
 5627 03ae 3A95      		dec r19
 5628 03b0 01F4      		brne 1b
 5629 03b2 302D      		mov r19,r0
 5630 03b4 0423      		and r16,r20
 5631 03b6 1523      		and r17,r21
 5632 03b8 0115      		cp r16,__zero_reg__
 5633 03ba 1105      		cpc r17,__zero_reg__
 5634 03bc 01F0      		breq .+2
 5635 03be 00C0      		rjmp .L373
 5636 03c0 892B      		or r24,r25
 5637 03c2 8A2B      		or r24,r26
 5638 03c4 8B2B      		or r24,r27
 5639 03c6 01F0      		breq .+2
 5640 03c8 00C0      		rjmp .L374
 5641 03ca D701      		movw r26,r14
 5642 03cc 1696      		adiw r26,6
 5643 03ce 4D91      		ld r20,X+
 5644 03d0 5D91      		ld r21,X+
 5645 03d2 6D91      		ld r22,X+
 5646 03d4 7C91      		ld r23,X
 5647 03d6 1997      		sbiw r26,6+3
 5648 03d8 4115      		cp r20,__zero_reg__
 5649 03da 5105      		cpc r21,__zero_reg__
 5650 03dc 6105      		cpc r22,__zero_reg__
 5651 03de 7105      		cpc r23,__zero_reg__
 5652 03e0 01F0      		breq .+2
 5653 03e2 00C0      		rjmp .L375
 5654 03e4 40E0      		ldi r20,0
 5655 03e6 50E0      		ldi r21,0
 5656 03e8 BA01      		movw r22,r20
 5657 03ea C701      		movw r24,r14
 5658 03ec 0E94 0000 		call _ZL12create_chainP7FFOBJIDm
 5659 03f0 462F      		mov r20,r22
 5660 03f2 572F      		mov r21,r23
 5661 03f4 682F      		mov r22,r24
 5662 03f6 792F      		mov r23,r25
 5663 03f8 00C0      		rjmp .L376
 5664               	.L402:
 5665 03fa C101      		movw r24,r2
 5666 03fc 0E94 0000 		call _ZL11sync_windowP5FATFS
 5667 0400 892B      		or r24,r25
 5668 0402 01F4      		brne .L404
 5669 0404 F101      		movw r30,r2
 5670 0406 43A6      		std Z+43,r4
 5671 0408 54A6      		std Z+44,r5
 5672 040a 65A6      		std Z+45,r6
 5673 040c 76A6      		std Z+46,r7
 5674 040e 00C0      		rjmp .L388
 5675               	.L404:
 5676 0410 81E0      		ldi r24,lo8(1)
 5677 0412 D701      		movw r26,r14
 5678 0414 1F96      		adiw r26,15
 5679 0416 8C93      		st X,r24
 5680 0418 8824      		clr r8
GAS LISTING C:\Users\ANDRLU~1\AppData\Local\Temp\ccpruXkc.s 			page 100


 5681 041a 8394      		inc r8
 5682 041c 912C      		mov r9,__zero_reg__
 5683 041e 00C0      		rjmp .L368
 5684               	.L403:
 5685 0420 81E0      		ldi r24,lo8(1)
 5686 0422 F701      		movw r30,r14
 5687 0424 8787      		std Z+15,r24
 5688 0426 8824      		clr r8
 5689 0428 8394      		inc r8
 5690 042a 912C      		mov r9,__zero_reg__
 5691 042c 00C0      		rjmp .L368
 5692               	.L394:
 5693 042e 0F2E      		mov __tmp_reg__,r31
 5694 0430 F7E0      		ldi r31,lo8(7)
 5695 0432 8F2E      		mov r8,r31
 5696 0434 912C      		mov r9,__zero_reg__
 5697 0436 F02D      		mov r31,__tmp_reg__
 5698 0438 00C0      		rjmp .L368
 5700               		.section	.text.f_sync,"ax",@progbits
 5701               	.global	f_sync
 5703               	f_sync:
 5704 0000 CF92      		push r12
 5705 0002 DF92      		push r13
 5706 0004 EF92      		push r14
 5707 0006 FF92      		push r15
 5708 0008 0F93      		push r16
 5709 000a 1F93      		push r17
 5710 000c CF93      		push r28
 5711 000e DF93      		push r29
 5712 0010 00D0      		rcall .
 5713 0012 CDB7      		in r28,__SP_L__
 5714 0014 DEB7      		in r29,__SP_H__
 5715               	/* prologue: function */
 5716               	/* frame size = 2 */
 5717               	/* stack size = 10 */
 5718               	.L__stack_usage = 10
 5719 0016 E82E      		mov r14,r24
 5720 0018 F92E      		mov r15,r25
 5721 001a BE01      		movw r22,r28
 5722 001c 6F5F      		subi r22,-1
 5723 001e 7F4F      		sbci r23,-1
 5724 0020 C701      		movw r24,r14
 5725 0022 0E94 0000 		call _ZL8validateP7FFOBJIDPP5FATFS
 5726 0026 282F      		mov r18,r24
 5727 0028 392F      		mov r19,r25
 5728 002a 2115      		cp r18,__zero_reg__
 5729 002c 3105      		cpc r19,__zero_reg__
 5730 002e 01F4      		brne .L405
 5731 0030 D701      		movw r26,r14
 5732 0032 1E96      		adiw r26,14
 5733 0034 8C91      		ld r24,X
 5734 0036 1E97      		sbiw r26,14
 5735 0038 86FD      		sbrc r24,6
 5736 003a 00C0      		rjmp .L413
 5737               	.L405:
 5738 003c C901      		movw r24,r18
 5739               	/* epilogue start */
GAS LISTING C:\Users\ANDRLU~1\AppData\Local\Temp\ccpruXkc.s 			page 101


 5740 003e 0F90      		pop __tmp_reg__
 5741 0040 0F90      		pop __tmp_reg__
 5742 0042 DF91      		pop r29
 5743 0044 CF91      		pop r28
 5744 0046 1F91      		pop r17
 5745 0048 0F91      		pop r16
 5746 004a FF90      		pop r15
 5747 004c EF90      		pop r14
 5748 004e DF90      		pop r13
 5749 0050 CF90      		pop r12
 5750 0052 0895      		ret
 5751               	.L413:
 5752 0054 C980      		ldd r12,Y+1
 5753 0056 DA80      		ldd r13,Y+2
 5754 0058 5C96      		adiw r26,28
 5755 005a 4D91      		ld r20,X+
 5756 005c 5D91      		ld r21,X+
 5757 005e 6D91      		ld r22,X+
 5758 0060 7C91      		ld r23,X
 5759 0062 5F97      		sbiw r26,28+3
 5760 0064 C601      		movw r24,r12
 5761 0066 0E94 0000 		call _ZL11move_windowP5FATFSm
 5762 006a 282F      		mov r18,r24
 5763 006c 392F      		mov r19,r25
 5764 006e 2115      		cp r18,__zero_reg__
 5765 0070 3105      		cpc r19,__zero_reg__
 5766 0072 01F4      		brne .L405
 5767 0074 D701      		movw r26,r14
 5768 0076 9096      		adiw r26,32
 5769 0078 ED91      		ld r30,X+
 5770 007a FC91      		ld r31,X
 5771 007c 9197      		sbiw r26,32+1
 5772 007e 8385      		ldd r24,Z+11
 5773 0080 8062      		ori r24,lo8(32)
 5774 0082 8387      		std Z+11,r24
 5775 0084 1696      		adiw r26,6
 5776 0086 4D91      		ld r20,X+
 5777 0088 5D91      		ld r21,X+
 5778 008a 6D91      		ld r22,X+
 5779 008c 7C91      		ld r23,X
 5780 008e 1997      		sbiw r26,6+3
 5781 0090 2D91      		ld r18,X+
 5782 0092 3C91      		ld r19,X
 5783 0094 428F      		std Z+26,r20
 5784 0096 538F      		std Z+27,r21
 5785 0098 D901      		movw r26,r18
 5786 009a 2C91      		ld r18,X
 5787 009c 2330      		cpi r18,lo8(3)
 5788 009e 01F0      		breq .L414
 5789               	.L407:
 5790 00a0 D701      		movw r26,r14
 5791 00a2 1A96      		adiw r26,10
 5792 00a4 3C91      		ld r19,X
 5793 00a6 1A97      		sbiw r26,10
 5794 00a8 1B96      		adiw r26,11
 5795 00aa 2C91      		ld r18,X
 5796 00ac 1B97      		sbiw r26,11
GAS LISTING C:\Users\ANDRLU~1\AppData\Local\Temp\ccpruXkc.s 			page 102


 5797 00ae 1C96      		adiw r26,12
 5798 00b0 9C91      		ld r25,X
 5799 00b2 1C97      		sbiw r26,12
 5800 00b4 1D96      		adiw r26,13
 5801 00b6 8C91      		ld r24,X
 5802 00b8 348F      		std Z+28,r19
 5803 00ba 258F      		std Z+29,r18
 5804 00bc 968F      		std Z+30,r25
 5805 00be 878F      		std Z+31,r24
 5806 00c0 168A      		std Z+22,__zero_reg__
 5807 00c2 178A      		std Z+23,__zero_reg__
 5808 00c4 81E2      		ldi r24,lo8(33)
 5809 00c6 808F      		std Z+24,r24
 5810 00c8 8AE4      		ldi r24,lo8(74)
 5811 00ca 818F      		std Z+25,r24
 5812 00cc 128A      		std Z+18,__zero_reg__
 5813 00ce 138A      		std Z+19,__zero_reg__
 5814 00d0 81E0      		ldi r24,lo8(1)
 5815 00d2 F601      		movw r30,r12
 5816 00d4 8383      		std Z+3,r24
 5817 00d6 C601      		movw r24,r12
 5818 00d8 0E94 0000 		call _ZL11sync_windowP5FATFS
 5819 00dc 282F      		mov r18,r24
 5820 00de 392F      		mov r19,r25
 5821 00e0 2115      		cp r18,__zero_reg__
 5822 00e2 3105      		cpc r19,__zero_reg__
 5823 00e4 01F4      		brne .L408
 5824 00e6 D601      		movw r26,r12
 5825 00e8 8C91      		ld r24,X
 5826 00ea 8330      		cpi r24,lo8(3)
 5827 00ec 01F0      		breq .L415
 5828               	.L409:
 5829 00ee 40E0      		ldi r20,0
 5830 00f0 50E0      		ldi r21,0
 5831 00f2 60E0      		ldi r22,0
 5832 00f4 F601      		movw r30,r12
 5833 00f6 8181      		ldd r24,Z+1
 5834 00f8 0E94 0000 		call disk_ioctl
 5835 00fc 41E0      		ldi r20,lo8(1)
 5836 00fe 50E0      		ldi r21,0
 5837 0100 892B      		or r24,r25
 5838 0102 01F4      		brne .L411
 5839 0104 40E0      		ldi r20,0
 5840               	.L411:
 5841 0106 242F      		mov r18,r20
 5842 0108 352F      		mov r19,r21
 5843               	.L408:
 5844 010a D701      		movw r26,r14
 5845 010c 1E96      		adiw r26,14
 5846 010e 8C91      		ld r24,X
 5847 0110 1E97      		sbiw r26,14
 5848 0112 8F7B      		andi r24,lo8(-65)
 5849 0114 1E96      		adiw r26,14
 5850 0116 8C93      		st X,r24
 5851 0118 00C0      		rjmp .L405
 5852               	.L414:
 5853 011a CB01      		movw r24,r22
GAS LISTING C:\Users\ANDRLU~1\AppData\Local\Temp\ccpruXkc.s 			page 103


 5854 011c AA27      		clr r26
 5855 011e BB27      		clr r27
 5856 0120 848B      		std Z+20,r24
 5857 0122 958B      		std Z+21,r25
 5858 0124 00C0      		rjmp .L407
 5859               	.L415:
 5860 0126 1496      		adiw r26,4
 5861 0128 8C91      		ld r24,X
 5862 012a 8130      		cpi r24,lo8(1)
 5863 012c 01F4      		brne .L409
 5864 012e B601      		movw r22,r12
 5865 0130 615D      		subi r22,-47
 5866 0132 7F4F      		sbci r23,-1
 5867 0134 9601      		movw r18,r12
 5868 0136 215D      		subi r18,-47
 5869 0138 3D4F      		sbci r19,-3
 5870 013a CB01      		movw r24,r22
 5871               	.L410:
 5872 013c FC01      		movw r30,r24
 5873 013e 0196      		adiw r24,1
 5874 0140 1082      		st Z,__zero_reg__
 5875 0142 2817      		cp r18,r24
 5876 0144 3907      		cpc r19,r25
 5877 0146 01F4      		brne .L410
 5878 0148 85E5      		ldi r24,lo8(85)
 5879 014a F601      		movw r30,r12
 5880 014c E35D      		subi r30,-45
 5881 014e FD4F      		sbci r31,-3
 5882 0150 8083      		st Z,r24
 5883 0152 8AEA      		ldi r24,lo8(-86)
 5884 0154 3196      		adiw r30,1
 5885 0156 8083      		st Z,r24
 5886 0158 82E5      		ldi r24,lo8(82)
 5887 015a F601      		movw r30,r12
 5888 015c 87A7      		std Z+47,r24
 5889 015e 80AB      		std Z+48,r24
 5890 0160 81E6      		ldi r24,lo8(97)
 5891 0162 81AB      		std Z+49,r24
 5892 0164 91E4      		ldi r25,lo8(65)
 5893 0166 92AB      		std Z+50,r25
 5894 0168 22E7      		ldi r18,lo8(114)
 5895 016a ED5E      		subi r30,-19
 5896 016c FD4F      		sbci r31,-3
 5897 016e 2083      		st Z,r18
 5898 0170 3196      		adiw r30,1
 5899 0172 2083      		st Z,r18
 5900 0174 3196      		adiw r30,1
 5901 0176 9083      		st Z,r25
 5902 0178 3196      		adiw r30,1
 5903 017a 8083      		st Z,r24
 5904 017c D601      		movw r26,r12
 5905 017e 1F96      		adiw r26,15
 5906 0180 3C91      		ld r19,X
 5907 0182 1F97      		sbiw r26,15
 5908 0184 5096      		adiw r26,16
 5909 0186 2C91      		ld r18,X
 5910 0188 5097      		sbiw r26,16
GAS LISTING C:\Users\ANDRLU~1\AppData\Local\Temp\ccpruXkc.s 			page 104


 5911 018a 5196      		adiw r26,17
 5912 018c 9C91      		ld r25,X
 5913 018e 5197      		sbiw r26,17
 5914 0190 5296      		adiw r26,18
 5915 0192 8C91      		ld r24,X
 5916 0194 5297      		sbiw r26,18
 5917 0196 3196      		adiw r30,1
 5918 0198 3083      		st Z,r19
 5919 019a 3196      		adiw r30,1
 5920 019c 2083      		st Z,r18
 5921 019e 3196      		adiw r30,1
 5922 01a0 9083      		st Z,r25
 5923 01a2 3196      		adiw r30,1
 5924 01a4 8083      		st Z,r24
 5925 01a6 F601      		movw r30,r12
 5926 01a8 3385      		ldd r19,Z+11
 5927 01aa 2485      		ldd r18,Z+12
 5928 01ac 9585      		ldd r25,Z+13
 5929 01ae 8685      		ldd r24,Z+14
 5930 01b0 E55E      		subi r30,-27
 5931 01b2 FD4F      		sbci r31,-3
 5932 01b4 3083      		st Z,r19
 5933 01b6 3196      		adiw r30,1
 5934 01b8 2083      		st Z,r18
 5935 01ba 3196      		adiw r30,1
 5936 01bc 9083      		st Z,r25
 5937 01be 3196      		adiw r30,1
 5938 01c0 8083      		st Z,r24
 5939 01c2 5B96      		adiw r26,27
 5940 01c4 2D91      		ld r18,X+
 5941 01c6 3D91      		ld r19,X+
 5942 01c8 4D91      		ld r20,X+
 5943 01ca 5C91      		ld r21,X
 5944 01cc 5E97      		sbiw r26,27+3
 5945 01ce 2F5F      		subi r18,-1
 5946 01d0 3F4F      		sbci r19,-1
 5947 01d2 4F4F      		sbci r20,-1
 5948 01d4 5F4F      		sbci r21,-1
 5949 01d6 F601      		movw r30,r12
 5950 01d8 23A7      		std Z+43,r18
 5951 01da 34A7      		std Z+44,r19
 5952 01dc 45A7      		std Z+45,r20
 5953 01de 56A7      		std Z+46,r21
 5954 01e0 01E0      		ldi r16,lo8(1)
 5955 01e2 10E0      		ldi r17,0
 5956 01e4 8181      		ldd r24,Z+1
 5957 01e6 0E94 0000 		call disk_write
 5958 01ea D601      		movw r26,r12
 5959 01ec 1496      		adiw r26,4
 5960 01ee 1C92      		st X,__zero_reg__
 5961 01f0 00C0      		rjmp .L409
 5963               		.section	.text.f_close,"ax",@progbits
 5964               	.global	f_close
 5966               	f_close:
 5967 0000 0F93      		push r16
 5968 0002 1F93      		push r17
 5969 0004 CF93      		push r28
GAS LISTING C:\Users\ANDRLU~1\AppData\Local\Temp\ccpruXkc.s 			page 105


 5970 0006 DF93      		push r29
 5971 0008 00D0      		rcall .
 5972 000a CDB7      		in r28,__SP_L__
 5973 000c DEB7      		in r29,__SP_H__
 5974               	/* prologue: function */
 5975               	/* frame size = 2 */
 5976               	/* stack size = 6 */
 5977               	.L__stack_usage = 6
 5978 000e 082F      		mov r16,r24
 5979 0010 192F      		mov r17,r25
 5980 0012 C801      		movw r24,r16
 5981 0014 0E94 0000 		call f_sync
 5982 0018 282F      		mov r18,r24
 5983 001a 392F      		mov r19,r25
 5984 001c 2115      		cp r18,__zero_reg__
 5985 001e 3105      		cpc r19,__zero_reg__
 5986 0020 01F0      		breq .L418
 5987               	.L416:
 5988 0022 C901      		movw r24,r18
 5989               	/* epilogue start */
 5990 0024 0F90      		pop __tmp_reg__
 5991 0026 0F90      		pop __tmp_reg__
 5992 0028 DF91      		pop r29
 5993 002a CF91      		pop r28
 5994 002c 1F91      		pop r17
 5995 002e 0F91      		pop r16
 5996 0030 0895      		ret
 5997               	.L418:
 5998 0032 BE01      		movw r22,r28
 5999 0034 6F5F      		subi r22,-1
 6000 0036 7F4F      		sbci r23,-1
 6001 0038 C801      		movw r24,r16
 6002 003a 0E94 0000 		call _ZL8validateP7FFOBJIDPP5FATFS
 6003 003e 282F      		mov r18,r24
 6004 0040 392F      		mov r19,r25
 6005 0042 2115      		cp r18,__zero_reg__
 6006 0044 3105      		cpc r19,__zero_reg__
 6007 0046 01F4      		brne .L416
 6008 0048 F801      		movw r30,r16
 6009 004a 1182      		std Z+1,__zero_reg__
 6010 004c 1082      		st Z,__zero_reg__
 6011 004e 00C0      		rjmp .L416
 6013               		.section	.text.f_lseek,"ax",@progbits
 6014               	.global	f_lseek
 6016               	f_lseek:
 6017 0000 4F92      		push r4
 6018 0002 5F92      		push r5
 6019 0004 6F92      		push r6
 6020 0006 7F92      		push r7
 6021 0008 8F92      		push r8
 6022 000a 9F92      		push r9
 6023 000c AF92      		push r10
 6024 000e BF92      		push r11
 6025 0010 CF92      		push r12
 6026 0012 DF92      		push r13
 6027 0014 EF92      		push r14
 6028 0016 FF92      		push r15
GAS LISTING C:\Users\ANDRLU~1\AppData\Local\Temp\ccpruXkc.s 			page 106


 6029 0018 0F93      		push r16
 6030 001a 1F93      		push r17
 6031 001c CF93      		push r28
 6032 001e DF93      		push r29
 6033 0020 CDB7      		in r28,__SP_L__
 6034 0022 DEB7      		in r29,__SP_H__
 6035 0024 2A97      		sbiw r28,10
 6036 0026 0FB6      		in __tmp_reg__,__SREG__
 6037 0028 F894      		cli
 6038 002a DEBF      		out __SP_H__,r29
 6039 002c 0FBE      		out __SREG__,__tmp_reg__
 6040 002e CDBF      		out __SP_L__,r28
 6041               	/* prologue: function */
 6042               	/* frame size = 10 */
 6043               	/* stack size = 26 */
 6044               	.L__stack_usage = 26
 6045 0030 082F      		mov r16,r24
 6046 0032 192F      		mov r17,r25
 6047 0034 C42E      		mov r12,r20
 6048 0036 D52E      		mov r13,r21
 6049 0038 E62E      		mov r14,r22
 6050 003a F72E      		mov r15,r23
 6051 003c BE01      		movw r22,r28
 6052 003e 6F5F      		subi r22,-1
 6053 0040 7F4F      		sbci r23,-1
 6054 0042 C801      		movw r24,r16
 6055 0044 0E94 0000 		call _ZL8validateP7FFOBJIDPP5FATFS
 6056 0048 A82E      		mov r10,r24
 6057 004a B92E      		mov r11,r25
 6058 004c A114      		cp r10,__zero_reg__
 6059 004e B104      		cpc r11,__zero_reg__
 6060 0050 01F0      		breq .+2
 6061 0052 00C0      		rjmp .L419
 6062 0054 D801      		movw r26,r16
 6063 0056 1F96      		adiw r26,15
 6064 0058 8C91      		ld r24,X
 6065 005a 1F97      		sbiw r26,15
 6066 005c A82E      		mov r10,r24
 6067 005e B12C      		mov r11,__zero_reg__
 6068 0060 8111      		cpse r24,__zero_reg__
 6069 0062 00C0      		rjmp .L419
 6070 0064 1A96      		adiw r26,10
 6071 0066 8D91      		ld r24,X+
 6072 0068 9D91      		ld r25,X+
 6073 006a 0D90      		ld __tmp_reg__,X+
 6074 006c BC91      		ld r27,X
 6075 006e A02D      		mov r26,__tmp_reg__
 6076 0070 8C15      		cp r24,r12
 6077 0072 9D05      		cpc r25,r13
 6078 0074 AE05      		cpc r26,r14
 6079 0076 BF05      		cpc r27,r15
 6080 0078 00F4      		brsh .L421
 6081 007a F801      		movw r30,r16
 6082 007c 2685      		ldd r18,Z+14
 6083 007e 21FD      		sbrc r18,1
 6084 0080 00C0      		rjmp .L421
 6085 0082 6C01      		movw r12,r24
GAS LISTING C:\Users\ANDRLU~1\AppData\Local\Temp\ccpruXkc.s 			page 107


 6086 0084 7D01      		movw r14,r26
 6087               	.L421:
 6088 0086 F801      		movw r30,r16
 6089 0088 8089      		ldd r24,Z+16
 6090 008a 9189      		ldd r25,Z+17
 6091 008c A289      		ldd r26,Z+18
 6092 008e B389      		ldd r27,Z+19
 6093 0090 108A      		std Z+16,__zero_reg__
 6094 0092 118A      		std Z+17,__zero_reg__
 6095 0094 128A      		std Z+18,__zero_reg__
 6096 0096 138A      		std Z+19,__zero_reg__
 6097 0098 C114      		cp r12,__zero_reg__
 6098 009a D104      		cpc r13,__zero_reg__
 6099 009c E104      		cpc r14,__zero_reg__
 6100 009e F104      		cpc r15,__zero_reg__
 6101 00a0 01F4      		brne .+2
 6102 00a2 00C0      		rjmp .L419
 6103 00a4 8980      		ldd r8,Y+1
 6104 00a6 9A80      		ldd r9,Y+2
 6105 00a8 F401      		movw r30,r8
 6106 00aa 4184      		ldd r4,Z+9
 6107 00ac 5284      		ldd r5,Z+10
 6108 00ae 612C      		mov r6,__zero_reg__
 6109 00b0 712C      		mov r7,__zero_reg__
 6110 00b2 032E      		mov r0,r19
 6111 00b4 39E0      		ldi r19,9
 6112               		1:
 6113 00b6 440C      		lsl r4
 6114 00b8 551C      		rol r5
 6115 00ba 661C      		rol r6
 6116 00bc 771C      		rol r7
 6117 00be 3A95      		dec r19
 6118 00c0 01F4      		brne 1b
 6119 00c2 302D      		mov r19,r0
 6120 00c4 0097      		sbiw r24,0
 6121 00c6 A105      		cpc r26,__zero_reg__
 6122 00c8 B105      		cpc r27,__zero_reg__
 6123 00ca 01F4      		brne .+2
 6124 00cc 00C0      		rjmp .L422
 6125 00ce 9C01      		movw r18,r24
 6126 00d0 AD01      		movw r20,r26
 6127 00d2 2150      		subi r18,1
 6128 00d4 3109      		sbc r19,__zero_reg__
 6129 00d6 4109      		sbc r20,__zero_reg__
 6130 00d8 5109      		sbc r21,__zero_reg__
 6131 00da 2F83      		std Y+7,r18
 6132 00dc 3887      		std Y+8,r19
 6133 00de 4987      		std Y+9,r20
 6134 00e0 5A87      		std Y+10,r21
 6135 00e2 D701      		movw r26,r14
 6136 00e4 C601      		movw r24,r12
 6137 00e6 0197      		sbiw r24,1
 6138 00e8 A109      		sbc r26,__zero_reg__
 6139 00ea B109      		sbc r27,__zero_reg__
 6140 00ec BC01      		movw r22,r24
 6141 00ee CD01      		movw r24,r26
 6142 00f0 A301      		movw r20,r6
GAS LISTING C:\Users\ANDRLU~1\AppData\Local\Temp\ccpruXkc.s 			page 108


 6143 00f2 9201      		movw r18,r4
 6144 00f4 0E94 0000 		call __udivmodsi4
 6145 00f8 2B83      		std Y+3,r18
 6146 00fa 3C83      		std Y+4,r19
 6147 00fc 4D83      		std Y+5,r20
 6148 00fe 5E83      		std Y+6,r21
 6149 0100 6F81      		ldd r22,Y+7
 6150 0102 7885      		ldd r23,Y+8
 6151 0104 8985      		ldd r24,Y+9
 6152 0106 9A85      		ldd r25,Y+10
 6153 0108 A301      		movw r20,r6
 6154 010a 9201      		movw r18,r4
 6155 010c 0E94 0000 		call __udivmodsi4
 6156 0110 8B81      		ldd r24,Y+3
 6157 0112 9C81      		ldd r25,Y+4
 6158 0114 AD81      		ldd r26,Y+5
 6159 0116 BE81      		ldd r27,Y+6
 6160 0118 8217      		cp r24,r18
 6161 011a 9307      		cpc r25,r19
 6162 011c A407      		cpc r26,r20
 6163 011e B507      		cpc r27,r21
 6164 0120 00F0      		brlo .L422
 6165 0122 8827      		clr r24
 6166 0124 9927      		clr r25
 6167 0126 DC01      		movw r26,r24
 6168 0128 8419      		sub r24,r4
 6169 012a 9509      		sbc r25,r5
 6170 012c A609      		sbc r26,r6
 6171 012e B709      		sbc r27,r7
 6172 0130 2F81      		ldd r18,Y+7
 6173 0132 3885      		ldd r19,Y+8
 6174 0134 4985      		ldd r20,Y+9
 6175 0136 5A85      		ldd r21,Y+10
 6176 0138 8223      		and r24,r18
 6177 013a 9323      		and r25,r19
 6178 013c A423      		and r26,r20
 6179 013e B523      		and r27,r21
 6180 0140 F801      		movw r30,r16
 6181 0142 808B      		std Z+16,r24
 6182 0144 918B      		std Z+17,r25
 6183 0146 A28B      		std Z+18,r26
 6184 0148 B38B      		std Z+19,r27
 6185 014a C81A      		sub r12,r24
 6186 014c D90A      		sbc r13,r25
 6187 014e EA0A      		sbc r14,r26
 6188 0150 FB0A      		sbc r15,r27
 6189 0152 4489      		ldd r20,Z+20
 6190 0154 5589      		ldd r21,Z+21
 6191 0156 6689      		ldd r22,Z+22
 6192 0158 7789      		ldd r23,Z+23
 6193 015a 00C0      		rjmp .L423
 6194               	.L422:
 6195 015c D801      		movw r26,r16
 6196 015e 1696      		adiw r26,6
 6197 0160 4D91      		ld r20,X+
 6198 0162 5D91      		ld r21,X+
 6199 0164 6D91      		ld r22,X+
GAS LISTING C:\Users\ANDRLU~1\AppData\Local\Temp\ccpruXkc.s 			page 109


 6200 0166 7C91      		ld r23,X
 6201 0168 1997      		sbiw r26,6+3
 6202 016a 4115      		cp r20,__zero_reg__
 6203 016c 5105      		cpc r21,__zero_reg__
 6204 016e 6105      		cpc r22,__zero_reg__
 6205 0170 7105      		cpc r23,__zero_reg__
 6206 0172 01F4      		brne .+2
 6207 0174 00C0      		rjmp .L441
 6208               	.L424:
 6209 0176 D801      		movw r26,r16
 6210 0178 5496      		adiw r26,20
 6211 017a 4D93      		st X+,r20
 6212 017c 5D93      		st X+,r21
 6213 017e 6D93      		st X+,r22
 6214 0180 7C93      		st X,r23
 6215 0182 5797      		sbiw r26,20+3
 6216               	.L423:
 6217 0184 4115      		cp r20,__zero_reg__
 6218 0186 5105      		cpc r21,__zero_reg__
 6219 0188 6105      		cpc r22,__zero_reg__
 6220 018a 7105      		cpc r23,__zero_reg__
 6221 018c 01F0      		breq .L427
 6222 018e 4C14      		cp r4,r12
 6223 0190 5D04      		cpc r5,r13
 6224 0192 6E04      		cpc r6,r14
 6225 0194 7F04      		cpc r7,r15
 6226 0196 00F4      		brsh .+2
 6227 0198 00C0      		rjmp .L435
 6228               	.L428:
 6229 019a F801      		movw r30,r16
 6230 019c 8089      		ldd r24,Z+16
 6231 019e 9189      		ldd r25,Z+17
 6232 01a0 A289      		ldd r26,Z+18
 6233 01a2 B389      		ldd r27,Z+19
 6234 01a4 8C0D      		add r24,r12
 6235 01a6 9D1D      		adc r25,r13
 6236 01a8 AE1D      		adc r26,r14
 6237 01aa BF1D      		adc r27,r15
 6238 01ac 808B      		std Z+16,r24
 6239 01ae 918B      		std Z+17,r25
 6240 01b0 A28B      		std Z+18,r26
 6241 01b2 B38B      		std Z+19,r27
 6242 01b4 D701      		movw r26,r14
 6243 01b6 C601      		movw r24,r12
 6244 01b8 9170      		andi r25,1
 6245 01ba AA27      		clr r26
 6246 01bc BB27      		clr r27
 6247 01be 0097      		sbiw r24,0
 6248 01c0 A105      		cpc r26,__zero_reg__
 6249 01c2 B105      		cpc r27,__zero_reg__
 6250 01c4 01F4      		brne .+2
 6251 01c6 00C0      		rjmp .L439
 6252 01c8 C401      		movw r24,r8
 6253 01ca 0E94 0000 		call _ZL9clst2sectP5FATFSm
 6254 01ce 462F      		mov r20,r22
 6255 01d0 572F      		mov r21,r23
 6256 01d2 682F      		mov r22,r24
GAS LISTING C:\Users\ANDRLU~1\AppData\Local\Temp\ccpruXkc.s 			page 110


 6257 01d4 792F      		mov r23,r25
 6258 01d6 4115      		cp r20,__zero_reg__
 6259 01d8 5105      		cpc r21,__zero_reg__
 6260 01da 6105      		cpc r22,__zero_reg__
 6261 01dc 7105      		cpc r23,__zero_reg__
 6262 01de 01F4      		brne .+2
 6263 01e0 00C0      		rjmp .L442
 6264 01e2 0B2E      		mov r0,r27
 6265 01e4 B9E0      		ldi r27,9
 6266               		1:
 6267 01e6 F694      		lsr r15
 6268 01e8 E794      		ror r14
 6269 01ea D794      		ror r13
 6270 01ec C794      		ror r12
 6271 01ee BA95      		dec r27
 6272 01f0 01F4      		brne 1b
 6273 01f2 B02D      		mov r27,r0
 6274 01f4 4C0D      		add r20,r12
 6275 01f6 5D1D      		adc r21,r13
 6276 01f8 6E1D      		adc r22,r14
 6277 01fa 7F1D      		adc r23,r15
 6278               	.L427:
 6279 01fc F801      		movw r30,r16
 6280 01fe 8089      		ldd r24,Z+16
 6281 0200 9189      		ldd r25,Z+17
 6282 0202 A289      		ldd r26,Z+18
 6283 0204 B389      		ldd r27,Z+19
 6284 0206 C284      		ldd r12,Z+10
 6285 0208 D384      		ldd r13,Z+11
 6286 020a E484      		ldd r14,Z+12
 6287 020c F584      		ldd r15,Z+13
 6288 020e C816      		cp r12,r24
 6289 0210 D906      		cpc r13,r25
 6290 0212 EA06      		cpc r14,r26
 6291 0214 FB06      		cpc r15,r27
 6292 0216 00F4      		brsh .L437
 6293 0218 8287      		std Z+10,r24
 6294 021a 9387      		std Z+11,r25
 6295 021c A487      		std Z+12,r26
 6296 021e B587      		std Z+13,r27
 6297 0220 2685      		ldd r18,Z+14
 6298 0222 2064      		ori r18,lo8(64)
 6299 0224 2687      		std Z+14,r18
 6300               	.L437:
 6301 0226 9170      		andi r25,1
 6302 0228 AA27      		clr r26
 6303 022a BB27      		clr r27
 6304 022c 892B      		or r24,r25
 6305 022e 8A2B      		or r24,r26
 6306 0230 8B2B      		or r24,r27
 6307 0232 01F0      		breq .L419
 6308 0234 F801      		movw r30,r16
 6309 0236 808D      		ldd r24,Z+24
 6310 0238 918D      		ldd r25,Z+25
 6311 023a A28D      		ldd r26,Z+26
 6312 023c B38D      		ldd r27,Z+27
 6313 023e 8417      		cp r24,r20
GAS LISTING C:\Users\ANDRLU~1\AppData\Local\Temp\ccpruXkc.s 			page 111


 6314 0240 9507      		cpc r25,r21
 6315 0242 A607      		cpc r26,r22
 6316 0244 B707      		cpc r27,r23
 6317 0246 01F0      		breq .L419
 6318 0248 408F      		std Z+24,r20
 6319 024a 518F      		std Z+25,r21
 6320 024c 628F      		std Z+26,r22
 6321 024e 738F      		std Z+27,r23
 6322               	.L419:
 6323 0250 C501      		movw r24,r10
 6324               	/* epilogue start */
 6325 0252 2A96      		adiw r28,10
 6326 0254 0FB6      		in __tmp_reg__,__SREG__
 6327 0256 F894      		cli
 6328 0258 DEBF      		out __SP_H__,r29
 6329 025a 0FBE      		out __SREG__,__tmp_reg__
 6330 025c CDBF      		out __SP_L__,r28
 6331 025e DF91      		pop r29
 6332 0260 CF91      		pop r28
 6333 0262 1F91      		pop r17
 6334 0264 0F91      		pop r16
 6335 0266 FF90      		pop r15
 6336 0268 EF90      		pop r14
 6337 026a DF90      		pop r13
 6338 026c CF90      		pop r12
 6339 026e BF90      		pop r11
 6340 0270 AF90      		pop r10
 6341 0272 9F90      		pop r9
 6342 0274 8F90      		pop r8
 6343 0276 7F90      		pop r7
 6344 0278 6F90      		pop r6
 6345 027a 5F90      		pop r5
 6346 027c 4F90      		pop r4
 6347 027e 0895      		ret
 6348               	.L441:
 6349 0280 40E0      		ldi r20,0
 6350 0282 50E0      		ldi r21,0
 6351 0284 BA01      		movw r22,r20
 6352 0286 C801      		movw r24,r16
 6353 0288 0E94 0000 		call _ZL12create_chainP7FFOBJIDm
 6354 028c 462F      		mov r20,r22
 6355 028e 572F      		mov r21,r23
 6356 0290 682F      		mov r22,r24
 6357 0292 792F      		mov r23,r25
 6358 0294 4130      		cpi r20,1
 6359 0296 5105      		cpc r21,__zero_reg__
 6360 0298 6105      		cpc r22,__zero_reg__
 6361 029a 7105      		cpc r23,__zero_reg__
 6362 029c 01F0      		breq .L443
 6363 029e 4F3F      		cpi r20,-1
 6364 02a0 FFEF      		ldi r31,-1
 6365 02a2 5F07      		cpc r21,r31
 6366 02a4 6F07      		cpc r22,r31
 6367 02a6 7F07      		cpc r23,r31
 6368 02a8 01F0      		breq .L444
 6369 02aa F801      		movw r30,r16
 6370 02ac 4683      		std Z+6,r20
GAS LISTING C:\Users\ANDRLU~1\AppData\Local\Temp\ccpruXkc.s 			page 112


 6371 02ae 5783      		std Z+7,r21
 6372 02b0 6087      		std Z+8,r22
 6373 02b2 7187      		std Z+9,r23
 6374 02b4 00C0      		rjmp .L424
 6375               	.L443:
 6376 02b6 82E0      		ldi r24,lo8(2)
 6377 02b8 F801      		movw r30,r16
 6378 02ba 8787      		std Z+15,r24
 6379 02bc 6894      		set
 6380 02be AA24      		clr r10
 6381 02c0 A1F8      		bld r10,1
 6382 02c2 B12C      		mov r11,__zero_reg__
 6383 02c4 00C0      		rjmp .L419
 6384               	.L444:
 6385 02c6 81E0      		ldi r24,lo8(1)
 6386 02c8 D801      		movw r26,r16
 6387 02ca 1F96      		adiw r26,15
 6388 02cc 8C93      		st X,r24
 6389 02ce AA24      		clr r10
 6390 02d0 A394      		inc r10
 6391 02d2 B12C      		mov r11,__zero_reg__
 6392 02d4 00C0      		rjmp .L419
 6393               	.L429:
 6394 02d6 C801      		movw r24,r16
 6395 02d8 0E94 0000 		call _ZL7get_fatP7FFOBJIDm
 6396 02dc 462F      		mov r20,r22
 6397 02de 572F      		mov r21,r23
 6398 02e0 682F      		mov r22,r24
 6399 02e2 792F      		mov r23,r25
 6400               	.L431:
 6401 02e4 4F3F      		cpi r20,-1
 6402 02e6 FFEF      		ldi r31,-1
 6403 02e8 5F07      		cpc r21,r31
 6404 02ea 6F07      		cpc r22,r31
 6405 02ec 7F07      		cpc r23,r31
 6406 02ee 01F0      		breq .L445
 6407 02f0 4230      		cpi r20,2
 6408 02f2 5105      		cpc r21,__zero_reg__
 6409 02f4 6105      		cpc r22,__zero_reg__
 6410 02f6 7105      		cpc r23,__zero_reg__
 6411 02f8 00F4      		brsh .+2
 6412 02fa 00C0      		rjmp .L433
 6413 02fc F401      		movw r30,r8
 6414 02fe 8389      		ldd r24,Z+19
 6415 0300 9489      		ldd r25,Z+20
 6416 0302 A589      		ldd r26,Z+21
 6417 0304 B689      		ldd r27,Z+22
 6418 0306 4817      		cp r20,r24
 6419 0308 5907      		cpc r21,r25
 6420 030a 6A07      		cpc r22,r26
 6421 030c 7B07      		cpc r23,r27
 6422 030e 00F4      		brsh .L433
 6423 0310 F801      		movw r30,r16
 6424 0312 448B      		std Z+20,r20
 6425 0314 558B      		std Z+21,r21
 6426 0316 668B      		std Z+22,r22
 6427 0318 778B      		std Z+23,r23
GAS LISTING C:\Users\ANDRLU~1\AppData\Local\Temp\ccpruXkc.s 			page 113


 6428 031a 4C14      		cp r4,r12
 6429 031c 5D04      		cpc r5,r13
 6430 031e 6E04      		cpc r6,r14
 6431 0320 7F04      		cpc r7,r15
 6432 0322 00F0      		brlo .+2
 6433 0324 00C0      		rjmp .L428
 6434               	.L435:
 6435 0326 C418      		sub r12,r4
 6436 0328 D508      		sbc r13,r5
 6437 032a E608      		sbc r14,r6
 6438 032c F708      		sbc r15,r7
 6439 032e F801      		movw r30,r16
 6440 0330 8089      		ldd r24,Z+16
 6441 0332 9189      		ldd r25,Z+17
 6442 0334 A289      		ldd r26,Z+18
 6443 0336 B389      		ldd r27,Z+19
 6444 0338 840D      		add r24,r4
 6445 033a 951D      		adc r25,r5
 6446 033c A61D      		adc r26,r6
 6447 033e B71D      		adc r27,r7
 6448 0340 808B      		std Z+16,r24
 6449 0342 918B      		std Z+17,r25
 6450 0344 A28B      		std Z+18,r26
 6451 0346 B38B      		std Z+19,r27
 6452 0348 8685      		ldd r24,Z+14
 6453 034a 81FF      		sbrs r24,1
 6454 034c 00C0      		rjmp .L429
 6455 034e C801      		movw r24,r16
 6456 0350 0E94 0000 		call _ZL12create_chainP7FFOBJIDm
 6457 0354 462F      		mov r20,r22
 6458 0356 572F      		mov r21,r23
 6459 0358 682F      		mov r22,r24
 6460 035a 792F      		mov r23,r25
 6461 035c 4115      		cp r20,__zero_reg__
 6462 035e 5105      		cpc r21,__zero_reg__
 6463 0360 6105      		cpc r22,__zero_reg__
 6464 0362 7105      		cpc r23,__zero_reg__
 6465 0364 01F0      		breq .+2
 6466 0366 00C0      		rjmp .L431
 6467 0368 00C0      		rjmp .L427
 6468               	.L445:
 6469 036a 81E0      		ldi r24,lo8(1)
 6470 036c D801      		movw r26,r16
 6471 036e 1F96      		adiw r26,15
 6472 0370 8C93      		st X,r24
 6473 0372 AA24      		clr r10
 6474 0374 A394      		inc r10
 6475 0376 B12C      		mov r11,__zero_reg__
 6476 0378 00C0      		rjmp .L419
 6477               	.L433:
 6478 037a 82E0      		ldi r24,lo8(2)
 6479 037c D801      		movw r26,r16
 6480 037e 1F96      		adiw r26,15
 6481 0380 8C93      		st X,r24
 6482 0382 6894      		set
 6483 0384 AA24      		clr r10
 6484 0386 A1F8      		bld r10,1
GAS LISTING C:\Users\ANDRLU~1\AppData\Local\Temp\ccpruXkc.s 			page 114


 6485 0388 B12C      		mov r11,__zero_reg__
 6486 038a 00C0      		rjmp .L419
 6487               	.L442:
 6488 038c 82E0      		ldi r24,lo8(2)
 6489 038e D801      		movw r26,r16
 6490 0390 1F96      		adiw r26,15
 6491 0392 8C93      		st X,r24
 6492 0394 6894      		set
 6493 0396 AA24      		clr r10
 6494 0398 A1F8      		bld r10,1
 6495 039a B12C      		mov r11,__zero_reg__
 6496 039c 00C0      		rjmp .L419
 6497               	.L439:
 6498 039e AC01      		movw r20,r24
 6499 03a0 BD01      		movw r22,r26
 6500 03a2 00C0      		rjmp .L427
 6502               		.section	.text.f_opendir,"ax",@progbits
 6503               	.global	f_opendir
 6505               	f_opendir:
 6506 0000 EF92      		push r14
 6507 0002 FF92      		push r15
 6508 0004 0F93      		push r16
 6509 0006 1F93      		push r17
 6510 0008 CF93      		push r28
 6511 000a DF93      		push r29
 6512 000c 00D0      		rcall .
 6513 000e 00D0      		rcall .
 6514 0010 CDB7      		in r28,__SP_L__
 6515 0012 DEB7      		in r29,__SP_H__
 6516               	/* prologue: function */
 6517               	/* frame size = 4 */
 6518               	/* stack size = 10 */
 6519               	.L__stack_usage = 10
 6520 0014 082F      		mov r16,r24
 6521 0016 192F      		mov r17,r25
 6522 0018 7C83      		std Y+4,r23
 6523 001a 6B83      		std Y+3,r22
 6524 001c 29E0      		ldi r18,lo8(9)
 6525 001e 30E0      		ldi r19,0
 6526 0020 0115      		cp r16,__zero_reg__
 6527 0022 1105      		cpc r17,__zero_reg__
 6528 0024 01F0      		breq .L446
 6529 0026 40E0      		ldi r20,0
 6530 0028 BE01      		movw r22,r28
 6531 002a 6F5F      		subi r22,-1
 6532 002c 7F4F      		sbci r23,-1
 6533 002e CE01      		movw r24,r28
 6534 0030 0396      		adiw r24,3
 6535 0032 0E94 0000 		call _ZL11find_volumePPKcPP5FATFSh
 6536 0036 282F      		mov r18,r24
 6537 0038 392F      		mov r19,r25
 6538 003a 2115      		cp r18,__zero_reg__
 6539 003c 3105      		cpc r19,__zero_reg__
 6540 003e 01F0      		breq .L454
 6541               	.L448:
 6542 0040 F801      		movw r30,r16
 6543 0042 1182      		std Z+1,__zero_reg__
GAS LISTING C:\Users\ANDRLU~1\AppData\Local\Temp\ccpruXkc.s 			page 115


 6544 0044 1082      		st Z,__zero_reg__
 6545               	.L446:
 6546 0046 C901      		movw r24,r18
 6547               	/* epilogue start */
 6548 0048 0F90      		pop __tmp_reg__
 6549 004a 0F90      		pop __tmp_reg__
 6550 004c 0F90      		pop __tmp_reg__
 6551 004e 0F90      		pop __tmp_reg__
 6552 0050 DF91      		pop r29
 6553 0052 CF91      		pop r28
 6554 0054 1F91      		pop r17
 6555 0056 0F91      		pop r16
 6556 0058 FF90      		pop r15
 6557 005a EF90      		pop r14
 6558 005c 0895      		ret
 6559               	.L454:
 6560 005e E980      		ldd r14,Y+1
 6561 0060 FA80      		ldd r15,Y+2
 6562 0062 D801      		movw r26,r16
 6563 0064 ED92      		st X+,r14
 6564 0066 FC92      		st X,r15
 6565 0068 6B81      		ldd r22,Y+3
 6566 006a 7C81      		ldd r23,Y+4
 6567 006c C801      		movw r24,r16
 6568 006e 0E94 0000 		call _ZL11follow_pathP3DIRPKc
 6569 0072 282F      		mov r18,r24
 6570 0074 392F      		mov r19,r25
 6571 0076 2115      		cp r18,__zero_reg__
 6572 0078 3105      		cpc r19,__zero_reg__
 6573 007a 01F4      		brne .L449
 6574 007c F801      		movw r30,r16
 6575 007e 87A1      		ldd r24,Z+39
 6576 0080 8823      		tst r24
 6577 0082 04F0      		brlt .L450
 6578 0084 8481      		ldd r24,Z+4
 6579 0086 84FF      		sbrs r24,4
 6580 0088 00C0      		rjmp .L452
 6581 008a 628D      		ldd r22,Z+26
 6582 008c 738D      		ldd r23,Z+27
 6583 008e C701      		movw r24,r14
 6584 0090 0E94 0000 		call _ZL8ld_clustP5FATFSPKh
 6585 0094 D801      		movw r26,r16
 6586 0096 1696      		adiw r26,6
 6587 0098 6D93      		st X+,r22
 6588 009a 7D93      		st X+,r23
 6589 009c 8D93      		st X+,r24
 6590 009e 9C93      		st X,r25
 6591 00a0 1997      		sbiw r26,6+3
 6592               	.L450:
 6593 00a2 F701      		movw r30,r14
 6594 00a4 8581      		ldd r24,Z+5
 6595 00a6 9681      		ldd r25,Z+6
 6596 00a8 D801      		movw r26,r16
 6597 00aa 1396      		adiw r26,2+1
 6598 00ac 9C93      		st X,r25
 6599 00ae 8E93      		st -X,r24
 6600 00b0 1297      		sbiw r26,2
GAS LISTING C:\Users\ANDRLU~1\AppData\Local\Temp\ccpruXkc.s 			page 116


 6601 00b2 40E0      		ldi r20,0
 6602 00b4 50E0      		ldi r21,0
 6603 00b6 BA01      		movw r22,r20
 6604 00b8 C801      		movw r24,r16
 6605 00ba 0E94 0000 		call _ZL7dir_sdiP3DIRm
 6606 00be 282F      		mov r18,r24
 6607 00c0 392F      		mov r19,r25
 6608               	.L449:
 6609 00c2 2430      		cpi r18,4
 6610 00c4 3105      		cpc r19,__zero_reg__
 6611 00c6 01F0      		breq .L453
 6612 00c8 2115      		cp r18,__zero_reg__
 6613 00ca 3105      		cpc r19,__zero_reg__
 6614 00cc 01F4      		brne .+2
 6615 00ce 00C0      		rjmp .L446
 6616 00d0 00C0      		rjmp .L448
 6617               	.L452:
 6618 00d2 25E0      		ldi r18,lo8(5)
 6619 00d4 30E0      		ldi r19,0
 6620 00d6 00C0      		rjmp .L448
 6621               	.L453:
 6622 00d8 25E0      		ldi r18,lo8(5)
 6623 00da 30E0      		ldi r19,0
 6624 00dc 00C0      		rjmp .L448
 6626               		.section	.text.f_closedir,"ax",@progbits
 6627               	.global	f_closedir
 6629               	f_closedir:
 6630 0000 0F93      		push r16
 6631 0002 1F93      		push r17
 6632 0004 CF93      		push r28
 6633 0006 DF93      		push r29
 6634 0008 00D0      		rcall .
 6635 000a CDB7      		in r28,__SP_L__
 6636 000c DEB7      		in r29,__SP_H__
 6637               	/* prologue: function */
 6638               	/* frame size = 2 */
 6639               	/* stack size = 6 */
 6640               	.L__stack_usage = 6
 6641 000e 082F      		mov r16,r24
 6642 0010 192F      		mov r17,r25
 6643 0012 BE01      		movw r22,r28
 6644 0014 6F5F      		subi r22,-1
 6645 0016 7F4F      		sbci r23,-1
 6646 0018 C801      		movw r24,r16
 6647 001a 0E94 0000 		call _ZL8validateP7FFOBJIDPP5FATFS
 6648 001e 0097      		sbiw r24,0
 6649 0020 01F4      		brne .L455
 6650 0022 F801      		movw r30,r16
 6651 0024 1182      		std Z+1,__zero_reg__
 6652 0026 1082      		st Z,__zero_reg__
 6653               	.L455:
 6654               	/* epilogue start */
 6655 0028 0F90      		pop __tmp_reg__
 6656 002a 0F90      		pop __tmp_reg__
 6657 002c DF91      		pop r29
 6658 002e CF91      		pop r28
 6659 0030 1F91      		pop r17
GAS LISTING C:\Users\ANDRLU~1\AppData\Local\Temp\ccpruXkc.s 			page 117


 6660 0032 0F91      		pop r16
 6661 0034 0895      		ret
 6663               		.section	.text.f_readdir,"ax",@progbits
 6664               	.global	f_readdir
 6666               	f_readdir:
 6667 0000 AF92      		push r10
 6668 0002 BF92      		push r11
 6669 0004 CF92      		push r12
 6670 0006 DF92      		push r13
 6671 0008 EF92      		push r14
 6672 000a FF92      		push r15
 6673 000c 0F93      		push r16
 6674 000e 1F93      		push r17
 6675 0010 CF93      		push r28
 6676 0012 DF93      		push r29
 6677 0014 00D0      		rcall .
 6678 0016 CDB7      		in r28,__SP_L__
 6679 0018 DEB7      		in r29,__SP_H__
 6680               	/* prologue: function */
 6681               	/* frame size = 2 */
 6682               	/* stack size = 12 */
 6683               	.L__stack_usage = 12
 6684 001a 082F      		mov r16,r24
 6685 001c 192F      		mov r17,r25
 6686 001e C62E      		mov r12,r22
 6687 0020 D72E      		mov r13,r23
 6688 0022 BE01      		movw r22,r28
 6689 0024 6F5F      		subi r22,-1
 6690 0026 7F4F      		sbci r23,-1
 6691 0028 C801      		movw r24,r16
 6692 002a 0E94 0000 		call _ZL8validateP7FFOBJIDPP5FATFS
 6693 002e E82E      		mov r14,r24
 6694 0030 F92E      		mov r15,r25
 6695 0032 E114      		cp r14,__zero_reg__
 6696 0034 F104      		cpc r15,__zero_reg__
 6697 0036 01F4      		brne .L457
 6698 0038 C114      		cp r12,__zero_reg__
 6699 003a D104      		cpc r13,__zero_reg__
 6700 003c 01F0      		breq .L475
 6701 003e D801      		movw r26,r16
 6702 0040 AD90      		ld r10,X+
 6703 0042 BC90      		ld r11,X
 6704 0044 24E0      		ldi r18,lo8(4)
 6705 0046 30E0      		ldi r19,0
 6706 0048 00C0      		rjmp .L460
 6707               	.L475:
 6708 004a 40E0      		ldi r20,0
 6709 004c 50E0      		ldi r21,0
 6710 004e BA01      		movw r22,r20
 6711 0050 C801      		movw r24,r16
 6712 0052 0E94 0000 		call _ZL7dir_sdiP3DIRm
 6713 0056 E82E      		mov r14,r24
 6714 0058 F92E      		mov r15,r25
 6715               	.L457:
 6716 005a C701      		movw r24,r14
 6717               	/* epilogue start */
 6718 005c 0F90      		pop __tmp_reg__
GAS LISTING C:\Users\ANDRLU~1\AppData\Local\Temp\ccpruXkc.s 			page 118


 6719 005e 0F90      		pop __tmp_reg__
 6720 0060 DF91      		pop r29
 6721 0062 CF91      		pop r28
 6722 0064 1F91      		pop r17
 6723 0066 0F91      		pop r16
 6724 0068 FF90      		pop r15
 6725 006a EF90      		pop r14
 6726 006c DF90      		pop r13
 6727 006e CF90      		pop r12
 6728 0070 BF90      		pop r11
 6729 0072 AF90      		pop r10
 6730 0074 0895      		ret
 6731               	.L462:
 6732 0076 60E0      		ldi r22,0
 6733 0078 70E0      		ldi r23,0
 6734 007a C801      		movw r24,r16
 6735 007c 0E94 0000 		call _ZL8dir_nextP3DIRi
 6736 0080 282F      		mov r18,r24
 6737 0082 392F      		mov r19,r25
 6738 0084 2115      		cp r18,__zero_reg__
 6739 0086 3105      		cpc r19,__zero_reg__
 6740 0088 01F0      		breq .+2
 6741 008a 00C0      		rjmp .L470
 6742               	.L460:
 6743 008c F801      		movw r30,r16
 6744 008e 4689      		ldd r20,Z+22
 6745 0090 5789      		ldd r21,Z+23
 6746 0092 608D      		ldd r22,Z+24
 6747 0094 718D      		ldd r23,Z+25
 6748 0096 4115      		cp r20,__zero_reg__
 6749 0098 5105      		cpc r21,__zero_reg__
 6750 009a 6105      		cpc r22,__zero_reg__
 6751 009c 7105      		cpc r23,__zero_reg__
 6752 009e 01F0      		breq .L476
 6753 00a0 C501      		movw r24,r10
 6754 00a2 0E94 0000 		call _ZL11move_windowP5FATFSm
 6755 00a6 282F      		mov r18,r24
 6756 00a8 392F      		mov r19,r25
 6757 00aa 2115      		cp r18,__zero_reg__
 6758 00ac 3105      		cpc r19,__zero_reg__
 6759 00ae 01F0      		breq .+2
 6760 00b0 00C0      		rjmp .L470
 6761 00b2 D801      		movw r26,r16
 6762 00b4 5A96      		adiw r26,26
 6763 00b6 ED91      		ld r30,X+
 6764 00b8 FC91      		ld r31,X
 6765 00ba 5B97      		sbiw r26,26+1
 6766 00bc 9081      		ld r25,Z
 6767 00be 9923      		tst r25
 6768 00c0 01F4      		brne .+2
 6769 00c2 00C0      		rjmp .L471
 6770 00c4 8385      		ldd r24,Z+11
 6771 00c6 8F73      		andi r24,lo8(63)
 6772 00c8 1496      		adiw r26,4
 6773 00ca 8C93      		st X,r24
 6774 00cc 953E      		cpi r25,lo8(-27)
 6775 00ce 01F0      		breq .L462
GAS LISTING C:\Users\ANDRLU~1\AppData\Local\Temp\ccpruXkc.s 			page 119


 6776 00d0 9E32      		cpi r25,lo8(46)
 6777 00d2 01F0      		breq .L462
 6778 00d4 8F30      		cpi r24,lo8(15)
 6779 00d6 01F0      		breq .L462
 6780 00d8 8F71      		andi r24,lo8(31)
 6781 00da 8830      		cpi r24,lo8(8)
 6782 00dc 01F0      		breq .L462
 6783 00de 00C0      		rjmp .L463
 6784               	.L476:
 6785 00e0 2115      		cp r18,__zero_reg__
 6786 00e2 3105      		cpc r19,__zero_reg__
 6787 00e4 01F0      		breq .+2
 6788 00e6 00C0      		rjmp .L470
 6789               	.L463:
 6790 00e8 F601      		movw r30,r12
 6791 00ea 1186      		std Z+9,__zero_reg__
 6792 00ec F801      		movw r30,r16
 6793 00ee 8689      		ldd r24,Z+22
 6794 00f0 9789      		ldd r25,Z+23
 6795 00f2 A08D      		ldd r26,Z+24
 6796 00f4 B18D      		ldd r27,Z+25
 6797 00f6 892B      		or r24,r25
 6798 00f8 8A2B      		or r24,r26
 6799 00fa 8B2B      		or r24,r27
 6800 00fc 01F4      		brne .+2
 6801 00fe 00C0      		rjmp .L465
 6802 0100 A701      		movw r20,r14
 6803 0102 C701      		movw r24,r14
 6804 0104 7EE2      		ldi r23,lo8(46)
 6805 0106 65EE      		ldi r22,lo8(-27)
 6806 0108 00C0      		rjmp .L469
 6807               	.L467:
 6808 010a 8930      		cpi r24,9
 6809 010c 9105      		cpc r25,__zero_reg__
 6810 010e 01F0      		breq .L477
 6811               	.L468:
 6812 0110 F601      		movw r30,r12
 6813 0112 E40F      		add r30,r20
 6814 0114 F51F      		adc r31,r21
 6815 0116 2187      		std Z+9,r18
 6816 0118 4F5F      		subi r20,-1
 6817 011a 5F4F      		sbci r21,-1
 6818               	.L466:
 6819 011c 8B30      		cpi r24,11
 6820 011e 9105      		cpc r25,__zero_reg__
 6821 0120 01F0      		breq .L478
 6822               	.L469:
 6823 0122 D801      		movw r26,r16
 6824 0124 5A96      		adiw r26,26
 6825 0126 ED91      		ld r30,X+
 6826 0128 FC91      		ld r31,X
 6827 012a E80F      		add r30,r24
 6828 012c F91F      		adc r31,r25
 6829 012e 0196      		adiw r24,1
 6830 0130 2081      		ld r18,Z
 6831 0132 2032      		cpi r18,lo8(32)
 6832 0134 01F0      		breq .L466
GAS LISTING C:\Users\ANDRLU~1\AppData\Local\Temp\ccpruXkc.s 			page 120


 6833 0136 2530      		cpi r18,lo8(5)
 6834 0138 01F4      		brne .L467
 6835 013a 262F      		mov r18,r22
 6836 013c 00C0      		rjmp .L467
 6837               	.L477:
 6838 013e F601      		movw r30,r12
 6839 0140 E40F      		add r30,r20
 6840 0142 F51F      		adc r31,r21
 6841 0144 7187      		std Z+9,r23
 6842 0146 4F5F      		subi r20,-1
 6843 0148 5F4F      		sbci r21,-1
 6844 014a 00C0      		rjmp .L468
 6845               	.L478:
 6846 014c F601      		movw r30,r12
 6847 014e E40F      		add r30,r20
 6848 0150 F51F      		adc r31,r21
 6849 0152 1186      		std Z+9,__zero_reg__
 6850 0154 D801      		movw r26,r16
 6851 0156 5A96      		adiw r26,26
 6852 0158 ED91      		ld r30,X+
 6853 015a FC91      		ld r31,X
 6854 015c 5B97      		sbiw r26,26+1
 6855 015e 8385      		ldd r24,Z+11
 6856 0160 F601      		movw r30,r12
 6857 0162 8087      		std Z+8,r24
 6858 0164 5A96      		adiw r26,26
 6859 0166 8D91      		ld r24,X+
 6860 0168 9C91      		ld r25,X
 6861 016a 4C96      		adiw r24,28
 6862 016c 0E94 0000 		call _ZL8ld_dwordPKh
 6863 0170 D601      		movw r26,r12
 6864 0172 6D93      		st X+,r22
 6865 0174 7D93      		st X+,r23
 6866 0176 8D93      		st X+,r24
 6867 0178 9C93      		st X,r25
 6868 017a 1397      		sbiw r26,3
 6869 017c D801      		movw r26,r16
 6870 017e 5A96      		adiw r26,26
 6871 0180 ED91      		ld r30,X+
 6872 0182 FC91      		ld r31,X
 6873 0184 5B97      		sbiw r26,26+1
 6874 0186 9789      		ldd r25,Z+23
 6875 0188 8689      		ldd r24,Z+22
 6876 018a F601      		movw r30,r12
 6877 018c 9783      		std Z+7,r25
 6878 018e 8683      		std Z+6,r24
 6879 0190 5A96      		adiw r26,26
 6880 0192 ED91      		ld r30,X+
 6881 0194 FC91      		ld r31,X
 6882 0196 918D      		ldd r25,Z+25
 6883 0198 808D      		ldd r24,Z+24
 6884 019a D601      		movw r26,r12
 6885 019c 1596      		adiw r26,4+1
 6886 019e 9C93      		st X,r25
 6887 01a0 8E93      		st -X,r24
 6888 01a2 1497      		sbiw r26,4
 6889               	.L465:
GAS LISTING C:\Users\ANDRLU~1\AppData\Local\Temp\ccpruXkc.s 			page 121


 6890 01a4 60E0      		ldi r22,0
 6891 01a6 70E0      		ldi r23,0
 6892 01a8 C801      		movw r24,r16
 6893 01aa 0E94 0000 		call _ZL8dir_nextP3DIRi
 6894 01ae 282F      		mov r18,r24
 6895 01b0 392F      		mov r19,r25
 6896 01b2 2430      		cpi r18,4
 6897 01b4 3105      		cpc r19,__zero_reg__
 6898 01b6 01F4      		brne .+2
 6899 01b8 00C0      		rjmp .L457
 6900 01ba 7901      		movw r14,r18
 6901 01bc 00C0      		rjmp .L457
 6902               	.L471:
 6903 01be 24E0      		ldi r18,lo8(4)
 6904 01c0 30E0      		ldi r19,0
 6905               	.L470:
 6906 01c2 D801      		movw r26,r16
 6907 01c4 5696      		adiw r26,22
 6908 01c6 1D92      		st X+,__zero_reg__
 6909 01c8 1D92      		st X+,__zero_reg__
 6910 01ca 1D92      		st X+,__zero_reg__
 6911 01cc 1C92      		st X,__zero_reg__
 6912 01ce 5997      		sbiw r26,22+3
 6913 01d0 2430      		cpi r18,4
 6914 01d2 3105      		cpc r19,__zero_reg__
 6915 01d4 01F4      		brne .+2
 6916 01d6 00C0      		rjmp .L463
 6917 01d8 7901      		movw r14,r18
 6918 01da 00C0      		rjmp .L457
 6920               		.section	.bss._ZL4Fsid,"aw",@nobits
 6923               	_ZL4Fsid:
 6924 0000 0000      		.zero	2
 6925               		.section	.bss._ZL5FatFs,"aw",@nobits
 6928               	_ZL5FatFs:
 6929 0000 0000      		.zero	2
 6930               		.ident	"GCC: (GNU) 12.1.0"
 6931               	.global __do_copy_data
 6932               	.global __do_clear_bss
GAS LISTING C:\Users\ANDRLU~1\AppData\Local\Temp\ccpruXkc.s 			page 122


DEFINED SYMBOLS
                            *ABS*:0000000000000000 ff.cpp
C:\Users\ANDRLU~1\AppData\Local\Temp\ccpruXkc.s:2      *ABS*:000000000000003e __SP_H__
C:\Users\ANDRLU~1\AppData\Local\Temp\ccpruXkc.s:3      *ABS*:000000000000003d __SP_L__
C:\Users\ANDRLU~1\AppData\Local\Temp\ccpruXkc.s:4      *ABS*:000000000000003f __SREG__
C:\Users\ANDRLU~1\AppData\Local\Temp\ccpruXkc.s:5      *ABS*:0000000000000000 __tmp_reg__
C:\Users\ANDRLU~1\AppData\Local\Temp\ccpruXkc.s:6      *ABS*:0000000000000001 __zero_reg__
C:\Users\ANDRLU~1\AppData\Local\Temp\ccpruXkc.s:10     .text._ZL8ld_dwordPKh:0000000000000000 _ZL8ld_dwordPKh
C:\Users\ANDRLU~1\AppData\Local\Temp\ccpruXkc.s:13     .text._ZL8ld_dwordPKh:0000000000000006 L0
C:\Users\ANDRLU~1\AppData\Local\Temp\ccpruXkc.s:14     .text._ZL8ld_dwordPKh:0000000000000008 L0
C:\Users\ANDRLU~1\AppData\Local\Temp\ccpruXkc.s:64     .text._ZL7mem_cpyPvPKvj:0000000000000000 _ZL7mem_cpyPvPKvj
C:\Users\ANDRLU~1\AppData\Local\Temp\ccpruXkc.s:98     .text._ZL7mem_cmpPKvS0_j:0000000000000000 _ZL7mem_cmpPKvS0_j
C:\Users\ANDRLU~1\AppData\Local\Temp\ccpruXkc.s:139    .text._ZL9clst2sectP5FATFSm:0000000000000000 _ZL9clst2sectP5FATFSm
C:\Users\ANDRLU~1\AppData\Local\Temp\ccpruXkc.s:142    .text._ZL9clst2sectP5FATFSm:0000000000000006 L0
C:\Users\ANDRLU~1\AppData\Local\Temp\ccpruXkc.s:143    .text._ZL9clst2sectP5FATFSm:0000000000000008 L0
C:\Users\ANDRLU~1\AppData\Local\Temp\ccpruXkc.s:215    .text._ZL12get_ldnumberPPKc:0000000000000000 _ZL12get_ldnumberPPKc
C:\Users\ANDRLU~1\AppData\Local\Temp\ccpruXkc.s:288    .text._ZL8validateP7FFOBJIDPP5FATFS:0000000000000000 _ZL8validateP7FFOBJIDPP5FATFS
C:\Users\ANDRLU~1\AppData\Local\Temp\ccpruXkc.s:364    .text._ZL11sync_windowP5FATFS:0000000000000000 _ZL11sync_windowP5FATFS
C:\Users\ANDRLU~1\AppData\Local\Temp\ccpruXkc.s:470    .text._ZL11move_windowP5FATFSm:0000000000000000 _ZL11move_windowP5FATFSm
C:\Users\ANDRLU~1\AppData\Local\Temp\ccpruXkc.s:542    .text._ZL7put_fatP5FATFSmm:0000000000000000 _ZL7put_fatP5FATFSmm
C:\Users\ANDRLU~1\AppData\Local\Temp\ccpruXkc.s:561    .text._ZL7put_fatP5FATFSmm:0000000000000026 L0
C:\Users\ANDRLU~1\AppData\Local\Temp\ccpruXkc.s:562    .text._ZL7put_fatP5FATFSmm:0000000000000028 L0
C:\Users\ANDRLU~1\AppData\Local\Temp\ccpruXkc.s:563    .text._ZL7put_fatP5FATFSmm:000000000000002a L0
C:\Users\ANDRLU~1\AppData\Local\Temp\ccpruXkc.s:603    .text._ZL7put_fatP5FATFSmm:0000000000000072 L0
C:\Users\ANDRLU~1\AppData\Local\Temp\ccpruXkc.s:606    .text._ZL7put_fatP5FATFSmm:0000000000000078 L0
C:\Users\ANDRLU~1\AppData\Local\Temp\ccpruXkc.s:710    .text._ZL7put_fatP5FATFSmm:0000000000000146 L0
C:\Users\ANDRLU~1\AppData\Local\Temp\ccpruXkc.s:758    .text._ZL7put_fatP5FATFSmm:00000000000001a2 L0
C:\Users\ANDRLU~1\AppData\Local\Temp\ccpruXkc.s:791    .text._ZL7put_fatP5FATFSmm:00000000000001e4 L0
C:\Users\ANDRLU~1\AppData\Local\Temp\ccpruXkc.s:839    .text._ZL7put_fatP5FATFSmm:0000000000000242 L0
C:\Users\ANDRLU~1\AppData\Local\Temp\ccpruXkc.s:893    .text._ZL7get_fatP7FFOBJIDm:0000000000000000 _ZL7get_fatP7FFOBJIDm
C:\Users\ANDRLU~1\AppData\Local\Temp\ccpruXkc.s:904    .text._ZL7get_fatP7FFOBJIDm:0000000000000016 L0
C:\Users\ANDRLU~1\AppData\Local\Temp\ccpruXkc.s:905    .text._ZL7get_fatP7FFOBJIDm:0000000000000018 L0
C:\Users\ANDRLU~1\AppData\Local\Temp\ccpruXkc.s:923    .text._ZL7get_fatP7FFOBJIDm:0000000000000034 L0
C:\Users\ANDRLU~1\AppData\Local\Temp\ccpruXkc.s:938    .text._ZL7get_fatP7FFOBJIDm:0000000000000052 L0
C:\Users\ANDRLU~1\AppData\Local\Temp\ccpruXkc.s:942    .text._ZL7get_fatP7FFOBJIDm:000000000000005a L0
C:\Users\ANDRLU~1\AppData\Local\Temp\ccpruXkc.s:945    .text._ZL7get_fatP7FFOBJIDm:0000000000000060 L0
C:\Users\ANDRLU~1\AppData\Local\Temp\ccpruXkc.s:1018   .text._ZL7get_fatP7FFOBJIDm:00000000000000f2 L0
C:\Users\ANDRLU~1\AppData\Local\Temp\ccpruXkc.s:1073   .text._ZL7get_fatP7FFOBJIDm:000000000000015e L0
C:\Users\ANDRLU~1\AppData\Local\Temp\ccpruXkc.s:1129   .text._ZL7get_fatP7FFOBJIDm:00000000000001cc L0
C:\Users\ANDRLU~1\AppData\Local\Temp\ccpruXkc.s:1223   .text._ZL7dir_sdiP3DIRm:0000000000000000 _ZL7dir_sdiP3DIRm
C:\Users\ANDRLU~1\AppData\Local\Temp\ccpruXkc.s:1255   .text._ZL7dir_sdiP3DIRm:0000000000000038 L0
C:\Users\ANDRLU~1\AppData\Local\Temp\ccpruXkc.s:1266   .text._ZL7dir_sdiP3DIRm:000000000000004e L0
C:\Users\ANDRLU~1\AppData\Local\Temp\ccpruXkc.s:1286   .text._ZL7dir_sdiP3DIRm:0000000000000076 L0
C:\Users\ANDRLU~1\AppData\Local\Temp\ccpruXkc.s:1295   .text._ZL7dir_sdiP3DIRm:0000000000000088 L0
C:\Users\ANDRLU~1\AppData\Local\Temp\ccpruXkc.s:1334   .text._ZL7dir_sdiP3DIRm:00000000000000d2 L0
C:\Users\ANDRLU~1\AppData\Local\Temp\ccpruXkc.s:1341   .text._ZL7dir_sdiP3DIRm:00000000000000e0 L0
C:\Users\ANDRLU~1\AppData\Local\Temp\ccpruXkc.s:1352   .text._ZL7dir_sdiP3DIRm:00000000000000f6 L0
C:\Users\ANDRLU~1\AppData\Local\Temp\ccpruXkc.s:1394   .text._ZL7dir_sdiP3DIRm:0000000000000146 L0
C:\Users\ANDRLU~1\AppData\Local\Temp\ccpruXkc.s:1492   .text._ZL12create_chainP7FFOBJIDm:0000000000000000 _ZL12create_chainP7FFOBJIDm
C:\Users\ANDRLU~1\AppData\Local\Temp\ccpruXkc.s:1535   .text._ZL12create_chainP7FFOBJIDm:000000000000004e L0
C:\Users\ANDRLU~1\AppData\Local\Temp\ccpruXkc.s:1545   .text._ZL12create_chainP7FFOBJIDm:0000000000000062 L0
C:\Users\ANDRLU~1\AppData\Local\Temp\ccpruXkc.s:1561   .text._ZL12create_chainP7FFOBJIDm:0000000000000082 L0
C:\Users\ANDRLU~1\AppData\Local\Temp\ccpruXkc.s:1568   .text._ZL12create_chainP7FFOBJIDm:0000000000000090 L0
C:\Users\ANDRLU~1\AppData\Local\Temp\ccpruXkc.s:1578   .text._ZL12create_chainP7FFOBJIDm:00000000000000a4 L0
C:\Users\ANDRLU~1\AppData\Local\Temp\ccpruXkc.s:1588   .text._ZL12create_chainP7FFOBJIDm:00000000000000b8 L0
C:\Users\ANDRLU~1\AppData\Local\Temp\ccpruXkc.s:1616   .text._ZL12create_chainP7FFOBJIDm:00000000000000f0 L0
C:\Users\ANDRLU~1\AppData\Local\Temp\ccpruXkc.s:1623   .text._ZL12create_chainP7FFOBJIDm:00000000000000fe L0
GAS LISTING C:\Users\ANDRLU~1\AppData\Local\Temp\ccpruXkc.s 			page 123


C:\Users\ANDRLU~1\AppData\Local\Temp\ccpruXkc.s:1638   .text._ZL12create_chainP7FFOBJIDm:000000000000011c L0
C:\Users\ANDRLU~1\AppData\Local\Temp\ccpruXkc.s:1648   .text._ZL12create_chainP7FFOBJIDm:0000000000000130 L0
C:\Users\ANDRLU~1\AppData\Local\Temp\ccpruXkc.s:1671   .text._ZL12create_chainP7FFOBJIDm:000000000000015c L0
C:\Users\ANDRLU~1\AppData\Local\Temp\ccpruXkc.s:1677   .text._ZL12create_chainP7FFOBJIDm:0000000000000168 L0
C:\Users\ANDRLU~1\AppData\Local\Temp\ccpruXkc.s:1730   .text._ZL12create_chainP7FFOBJIDm:00000000000001cc L0
C:\Users\ANDRLU~1\AppData\Local\Temp\ccpruXkc.s:1747   .text._ZL12create_chainP7FFOBJIDm:00000000000001ee L0
C:\Users\ANDRLU~1\AppData\Local\Temp\ccpruXkc.s:1787   .text._ZL12create_chainP7FFOBJIDm:000000000000023c L0
C:\Users\ANDRLU~1\AppData\Local\Temp\ccpruXkc.s:1861   .text._ZL8dir_nextP3DIRi:0000000000000000 _ZL8dir_nextP3DIRi
C:\Users\ANDRLU~1\AppData\Local\Temp\ccpruXkc.s:1918   .text._ZL8dir_nextP3DIRi:000000000000006a L0
C:\Users\ANDRLU~1\AppData\Local\Temp\ccpruXkc.s:1925   .text._ZL8dir_nextP3DIRi:0000000000000078 L0
C:\Users\ANDRLU~1\AppData\Local\Temp\ccpruXkc.s:1955   .text._ZL8dir_nextP3DIRi:00000000000000b4 L0
C:\Users\ANDRLU~1\AppData\Local\Temp\ccpruXkc.s:2065   .text._ZL8dir_nextP3DIRi:0000000000000182 L0
C:\Users\ANDRLU~1\AppData\Local\Temp\ccpruXkc.s:2081   .text._ZL8dir_nextP3DIRi:00000000000001a4 L0
C:\Users\ANDRLU~1\AppData\Local\Temp\ccpruXkc.s:2090   .text._ZL8dir_nextP3DIRi:00000000000001b6 L0
C:\Users\ANDRLU~1\AppData\Local\Temp\ccpruXkc.s:2101   .text._ZL8dir_nextP3DIRi:00000000000001cc L0
C:\Users\ANDRLU~1\AppData\Local\Temp\ccpruXkc.s:2104   .text._ZL8dir_nextP3DIRi:00000000000001d2 L0
C:\Users\ANDRLU~1\AppData\Local\Temp\ccpruXkc.s:2124   .text._ZL8dir_nextP3DIRi:00000000000001fc L0
C:\Users\ANDRLU~1\AppData\Local\Temp\ccpruXkc.s:2131   .text._ZL8dir_nextP3DIRi:000000000000020a L0
C:\Users\ANDRLU~1\AppData\Local\Temp\ccpruXkc.s:2140   .text._ZL8dir_nextP3DIRi:000000000000021c L0
C:\Users\ANDRLU~1\AppData\Local\Temp\ccpruXkc.s:2150   .text._ZL8dir_nextP3DIRi:0000000000000232 L0
C:\Users\ANDRLU~1\AppData\Local\Temp\ccpruXkc.s:2285   .text._ZL8check_fsP5FATFSm:0000000000000000 _ZL8check_fsP5FATFSm
C:\Users\ANDRLU~1\AppData\Local\Temp\ccpruXkc.s:2367   .text._ZL11find_volumePPKcPP5FATFSh:0000000000000000 _ZL11find_volumePPKcPP5FATFSh
C:\Users\ANDRLU~1\AppData\Local\Temp\ccpruXkc.s:2408   .text._ZL11find_volumePPKcPP5FATFSh:000000000000004c L0
C:\Users\ANDRLU~1\AppData\Local\Temp\ccpruXkc.s:6928   .bss._ZL5FatFs:0000000000000000 _ZL5FatFs
C:\Users\ANDRLU~1\AppData\Local\Temp\ccpruXkc.s:2419   .text._ZL11find_volumePPKcPP5FATFSh:0000000000000062 L0
C:\Users\ANDRLU~1\AppData\Local\Temp\ccpruXkc.s:2438   .text._ZL11find_volumePPKcPP5FATFSh:000000000000008a L0
C:\Users\ANDRLU~1\AppData\Local\Temp\ccpruXkc.s:2486   .text._ZL11find_volumePPKcPP5FATFSh:00000000000000e8 L0
C:\Users\ANDRLU~1\AppData\Local\Temp\ccpruXkc.s:2494   .text._ZL11find_volumePPKcPP5FATFSh:00000000000000f8 L0
C:\Users\ANDRLU~1\AppData\Local\Temp\ccpruXkc.s:2565   .text._ZL11find_volumePPKcPP5FATFSh:000000000000017a L0
C:\Users\ANDRLU~1\AppData\Local\Temp\ccpruXkc.s:2589   .text._ZL11find_volumePPKcPP5FATFSh:00000000000001aa L0
C:\Users\ANDRLU~1\AppData\Local\Temp\ccpruXkc.s:2602   .text._ZL11find_volumePPKcPP5FATFSh:00000000000001c2 L0
C:\Users\ANDRLU~1\AppData\Local\Temp\ccpruXkc.s:2645   .text._ZL11find_volumePPKcPP5FATFSh:0000000000000218 L0
C:\Users\ANDRLU~1\AppData\Local\Temp\ccpruXkc.s:2662   .text._ZL11find_volumePPKcPP5FATFSh:000000000000023a L0
C:\Users\ANDRLU~1\AppData\Local\Temp\ccpruXkc.s:2675   .text._ZL11find_volumePPKcPP5FATFSh:0000000000000254 L0
C:\Users\ANDRLU~1\AppData\Local\Temp\ccpruXkc.s:2694   .text._ZL11find_volumePPKcPP5FATFSh:000000000000027a L0
C:\Users\ANDRLU~1\AppData\Local\Temp\ccpruXkc.s:2724   .text._ZL11find_volumePPKcPP5FATFSh:00000000000002b6 L0
C:\Users\ANDRLU~1\AppData\Local\Temp\ccpruXkc.s:2771   .text._ZL11find_volumePPKcPP5FATFSh:0000000000000316 L0
C:\Users\ANDRLU~1\AppData\Local\Temp\ccpruXkc.s:2808   .text._ZL11find_volumePPKcPP5FATFSh:0000000000000362 L0
C:\Users\ANDRLU~1\AppData\Local\Temp\ccpruXkc.s:2820   .text._ZL11find_volumePPKcPP5FATFSh:000000000000037a L0
C:\Users\ANDRLU~1\AppData\Local\Temp\ccpruXkc.s:2827   .text._ZL11find_volumePPKcPP5FATFSh:0000000000000388 L0
C:\Users\ANDRLU~1\AppData\Local\Temp\ccpruXkc.s:2833   .text._ZL11find_volumePPKcPP5FATFSh:0000000000000394 L0
C:\Users\ANDRLU~1\AppData\Local\Temp\ccpruXkc.s:2890   .text._ZL11find_volumePPKcPP5FATFSh:0000000000000406 L0
C:\Users\ANDRLU~1\AppData\Local\Temp\ccpruXkc.s:2933   .text._ZL11find_volumePPKcPP5FATFSh:0000000000000458 L0
C:\Users\ANDRLU~1\AppData\Local\Temp\ccpruXkc.s:6923   .bss._ZL4Fsid:0000000000000000 _ZL4Fsid
C:\Users\ANDRLU~1\AppData\Local\Temp\ccpruXkc.s:3145   .text._ZL11find_volumePPKcPP5FATFSh:00000000000005e2 L0
C:\Users\ANDRLU~1\AppData\Local\Temp\ccpruXkc.s:3246   .text._ZL11find_volumePPKcPP5FATFSh:00000000000006aa L0
C:\Users\ANDRLU~1\AppData\Local\Temp\ccpruXkc.s:3287   .text._ZL11find_volumePPKcPP5FATFSh:00000000000006fc L0
C:\Users\ANDRLU~1\AppData\Local\Temp\ccpruXkc.s:3310   .text._ZL11find_volumePPKcPP5FATFSh:000000000000072a L0
C:\Users\ANDRLU~1\AppData\Local\Temp\ccpruXkc.s:3324   .text._ZL11find_volumePPKcPP5FATFSh:0000000000000748 L0
C:\Users\ANDRLU~1\AppData\Local\Temp\ccpruXkc.s:3338   .text._ZL11find_volumePPKcPP5FATFSh:0000000000000764 L0
C:\Users\ANDRLU~1\AppData\Local\Temp\ccpruXkc.s:3352   .text._ZL11find_volumePPKcPP5FATFSh:0000000000000782 L0
C:\Users\ANDRLU~1\AppData\Local\Temp\ccpruXkc.s:3367   .text._ZL11find_volumePPKcPP5FATFSh:00000000000007a2 L0
C:\Users\ANDRLU~1\AppData\Local\Temp\ccpruXkc.s:3394   .text._ZL8ld_clustP5FATFSPKh:0000000000000000 _ZL8ld_clustP5FATFSPKh
C:\Users\ANDRLU~1\AppData\Local\Temp\ccpruXkc.s:3397   .text._ZL8ld_clustP5FATFSPKh:0000000000000006 L0
C:\Users\ANDRLU~1\AppData\Local\Temp\ccpruXkc.s:3398   .text._ZL8ld_clustP5FATFSPKh:0000000000000008 L0
C:\Users\ANDRLU~1\AppData\Local\Temp\ccpruXkc.s:3456   .text._ZL11follow_pathP3DIRPKc:0000000000000000 _ZL11follow_pathP3DIRPKc
C:\Users\ANDRLU~1\AppData\Local\Temp\ccpruXkc.s:3566   .text._ZL11follow_pathP3DIRPKc:00000000000000c8 L0
GAS LISTING C:\Users\ANDRLU~1\AppData\Local\Temp\ccpruXkc.s 			page 124


C:\Users\ANDRLU~1\AppData\Local\Temp\ccpruXkc.s:3573   .text._ZL11follow_pathP3DIRPKc:00000000000000d6 L0
C:\Users\ANDRLU~1\AppData\Local\Temp\ccpruXkc.s:3595   .text._ZL11follow_pathP3DIRPKc:0000000000000100 L0
C:\Users\ANDRLU~1\AppData\Local\Temp\ccpruXkc.s:3603   .text._ZL11follow_pathP3DIRPKc:000000000000010c L0
C:\Users\ANDRLU~1\AppData\Local\Temp\ccpruXkc.s:3617   .text._ZL11follow_pathP3DIRPKc:0000000000000124 L0
C:\Users\ANDRLU~1\AppData\Local\Temp\ccpruXkc.s:3625   .text._ZL11follow_pathP3DIRPKc:0000000000000132 L0
C:\Users\ANDRLU~1\AppData\Local\Temp\ccpruXkc.s:3688   .text._ZL11follow_pathP3DIRPKc:00000000000001a4 L0
C:\Users\ANDRLU~1\AppData\Local\Temp\ccpruXkc.s:3703   .text._ZL11follow_pathP3DIRPKc:00000000000001c2 L0
C:\Users\ANDRLU~1\AppData\Local\Temp\ccpruXkc.s:3712   .text._ZL11follow_pathP3DIRPKc:00000000000001d4 L0
C:\Users\ANDRLU~1\AppData\Local\Temp\ccpruXkc.s:3763   .text._ZL11follow_pathP3DIRPKc:000000000000023a L0
C:\Users\ANDRLU~1\AppData\Local\Temp\ccpruXkc.s:3794   .text._ZL11follow_pathP3DIRPKc:0000000000000272 L0
C:\Users\ANDRLU~1\AppData\Local\Temp\ccpruXkc.s:3798   .text._ZL11follow_pathP3DIRPKc:0000000000000278 L0
C:\Users\ANDRLU~1\AppData\Local\Temp\ccpruXkc.s:3801   .text._ZL11follow_pathP3DIRPKc:000000000000027e L0
C:\Users\ANDRLU~1\AppData\Local\Temp\ccpruXkc.s:3809   .text._ZL11follow_pathP3DIRPKc:000000000000028e L0
C:\Users\ANDRLU~1\AppData\Local\Temp\ccpruXkc.s:3816   .text._ZL11follow_pathP3DIRPKc:000000000000029c L0
C:\Users\ANDRLU~1\AppData\Local\Temp\ccpruXkc.s:3828   .text._ZL11follow_pathP3DIRPKc:00000000000002b2 L0
C:\Users\ANDRLU~1\AppData\Local\Temp\ccpruXkc.s:3831   .text._ZL11follow_pathP3DIRPKc:00000000000002b8 L0
C:\Users\ANDRLU~1\AppData\Local\Temp\ccpruXkc.s:3847   .text.f_mount:0000000000000000 f_mount
C:\Users\ANDRLU~1\AppData\Local\Temp\ccpruXkc.s:3851   .text.f_mount:0000000000000008 L0
C:\Users\ANDRLU~1\AppData\Local\Temp\ccpruXkc.s:3852   .text.f_mount:000000000000000a L0
C:\Users\ANDRLU~1\AppData\Local\Temp\ccpruXkc.s:3853   .text.f_mount:000000000000000c L0
C:\Users\ANDRLU~1\AppData\Local\Temp\ccpruXkc.s:3932   .text.f_open:0000000000000000 f_open
C:\Users\ANDRLU~1\AppData\Local\Temp\ccpruXkc.s:4037   .text.f_open:00000000000000c6 L0
C:\Users\ANDRLU~1\AppData\Local\Temp\ccpruXkc.s:4041   .text.f_open:00000000000000ce L0
C:\Users\ANDRLU~1\AppData\Local\Temp\ccpruXkc.s:4046   .text.f_open:00000000000000d8 L0
C:\Users\ANDRLU~1\AppData\Local\Temp\ccpruXkc.s:4083   .text.f_open:000000000000011c L0
C:\Users\ANDRLU~1\AppData\Local\Temp\ccpruXkc.s:4130   .text.f_open:000000000000017a L0
C:\Users\ANDRLU~1\AppData\Local\Temp\ccpruXkc.s:4230   .text.f_open:0000000000000242 L0
C:\Users\ANDRLU~1\AppData\Local\Temp\ccpruXkc.s:4262   .text.f_open:0000000000000280 L0
C:\Users\ANDRLU~1\AppData\Local\Temp\ccpruXkc.s:4332   .text.f_open:000000000000030a L0
C:\Users\ANDRLU~1\AppData\Local\Temp\ccpruXkc.s:4348   .text.f_open:000000000000032a L0
C:\Users\ANDRLU~1\AppData\Local\Temp\ccpruXkc.s:4359   .text.f_open:0000000000000340 L0
C:\Users\ANDRLU~1\AppData\Local\Temp\ccpruXkc.s:4380   .text.f_open:0000000000000366 L0
C:\Users\ANDRLU~1\AppData\Local\Temp\ccpruXkc.s:4400   .text.f_open:000000000000038e L0
C:\Users\ANDRLU~1\AppData\Local\Temp\ccpruXkc.s:4407   .text.f_open:000000000000039c L0
C:\Users\ANDRLU~1\AppData\Local\Temp\ccpruXkc.s:4414   .text.f_open:00000000000003aa L0
C:\Users\ANDRLU~1\AppData\Local\Temp\ccpruXkc.s:4429   .text.f_open:00000000000003ca L0
C:\Users\ANDRLU~1\AppData\Local\Temp\ccpruXkc.s:4450   .text.f_open:00000000000003f4 L0
C:\Users\ANDRLU~1\AppData\Local\Temp\ccpruXkc.s:4497   .text.f_open:000000000000044e L0
C:\Users\ANDRLU~1\AppData\Local\Temp\ccpruXkc.s:4535   .text.f_open:0000000000000496 L0
C:\Users\ANDRLU~1\AppData\Local\Temp\ccpruXkc.s:4715   .text.f_read:0000000000000000 f_read
C:\Users\ANDRLU~1\AppData\Local\Temp\ccpruXkc.s:4734   .text.f_read:0000000000000026 L0
C:\Users\ANDRLU~1\AppData\Local\Temp\ccpruXkc.s:4735   .text.f_read:0000000000000028 L0
C:\Users\ANDRLU~1\AppData\Local\Temp\ccpruXkc.s:4736   .text.f_read:000000000000002a L0
C:\Users\ANDRLU~1\AppData\Local\Temp\ccpruXkc.s:4761   .text.f_read:0000000000000056 L0
C:\Users\ANDRLU~1\AppData\Local\Temp\ccpruXkc.s:4796   .text.f_read:000000000000009a L0
C:\Users\ANDRLU~1\AppData\Local\Temp\ccpruXkc.s:4910   .text.f_read:0000000000000170 L0
C:\Users\ANDRLU~1\AppData\Local\Temp\ccpruXkc.s:4952   .text.f_read:00000000000001c4 L0
C:\Users\ANDRLU~1\AppData\Local\Temp\ccpruXkc.s:4968   .text.f_read:00000000000001e2 L0
C:\Users\ANDRLU~1\AppData\Local\Temp\ccpruXkc.s:4997   .text.f_read:000000000000021a L0
C:\Users\ANDRLU~1\AppData\Local\Temp\ccpruXkc.s:5009   .text.f_read:0000000000000230 L0
C:\Users\ANDRLU~1\AppData\Local\Temp\ccpruXkc.s:5016   .text.f_read:000000000000023e L0
C:\Users\ANDRLU~1\AppData\Local\Temp\ccpruXkc.s:5039   .text.f_read:000000000000026c L0
C:\Users\ANDRLU~1\AppData\Local\Temp\ccpruXkc.s:5048   .text.f_read:000000000000027e L0
C:\Users\ANDRLU~1\AppData\Local\Temp\ccpruXkc.s:5079   .text.f_read:00000000000002bc L0
C:\Users\ANDRLU~1\AppData\Local\Temp\ccpruXkc.s:5134   .text.f_write:0000000000000000 f_write
C:\Users\ANDRLU~1\AppData\Local\Temp\ccpruXkc.s:5153   .text.f_write:0000000000000026 L0
C:\Users\ANDRLU~1\AppData\Local\Temp\ccpruXkc.s:5154   .text.f_write:0000000000000028 L0
GAS LISTING C:\Users\ANDRLU~1\AppData\Local\Temp\ccpruXkc.s 			page 125


C:\Users\ANDRLU~1\AppData\Local\Temp\ccpruXkc.s:5155   .text.f_write:000000000000002a L0
C:\Users\ANDRLU~1\AppData\Local\Temp\ccpruXkc.s:5183   .text.f_write:000000000000005c L0
C:\Users\ANDRLU~1\AppData\Local\Temp\ccpruXkc.s:5215   .text.f_write:000000000000009a L0
C:\Users\ANDRLU~1\AppData\Local\Temp\ccpruXkc.s:5246   .text.f_write:00000000000000d2 L0
C:\Users\ANDRLU~1\AppData\Local\Temp\ccpruXkc.s:5253   .text.f_write:00000000000000e0 L0
C:\Users\ANDRLU~1\AppData\Local\Temp\ccpruXkc.s:5294   .text.f_write:0000000000000130 L0
C:\Users\ANDRLU~1\AppData\Local\Temp\ccpruXkc.s:5314   .text.f_write:0000000000000158 L0
C:\Users\ANDRLU~1\AppData\Local\Temp\ccpruXkc.s:5323   .text.f_write:000000000000016a L0
C:\Users\ANDRLU~1\AppData\Local\Temp\ccpruXkc.s:5357   .text.f_write:00000000000001ae L0
C:\Users\ANDRLU~1\AppData\Local\Temp\ccpruXkc.s:5415   .text.f_write:000000000000021a L0
C:\Users\ANDRLU~1\AppData\Local\Temp\ccpruXkc.s:5491   .text.f_write:00000000000002aa L0
C:\Users\ANDRLU~1\AppData\Local\Temp\ccpruXkc.s:5528   .text.f_write:00000000000002f0 L0
C:\Users\ANDRLU~1\AppData\Local\Temp\ccpruXkc.s:5593   .text.f_write:0000000000000370 L0
C:\Users\ANDRLU~1\AppData\Local\Temp\ccpruXkc.s:5609   .text.f_write:000000000000038e L0
C:\Users\ANDRLU~1\AppData\Local\Temp\ccpruXkc.s:5634   .text.f_write:00000000000003be L0
C:\Users\ANDRLU~1\AppData\Local\Temp\ccpruXkc.s:5639   .text.f_write:00000000000003c8 L0
C:\Users\ANDRLU~1\AppData\Local\Temp\ccpruXkc.s:5652   .text.f_write:00000000000003e2 L0
C:\Users\ANDRLU~1\AppData\Local\Temp\ccpruXkc.s:5703   .text.f_sync:0000000000000000 f_sync
C:\Users\ANDRLU~1\AppData\Local\Temp\ccpruXkc.s:5712   .text.f_sync:0000000000000012 L0
C:\Users\ANDRLU~1\AppData\Local\Temp\ccpruXkc.s:5966   .text.f_close:0000000000000000 f_close
C:\Users\ANDRLU~1\AppData\Local\Temp\ccpruXkc.s:5971   .text.f_close:000000000000000a L0
C:\Users\ANDRLU~1\AppData\Local\Temp\ccpruXkc.s:6016   .text.f_lseek:0000000000000000 f_lseek
C:\Users\ANDRLU~1\AppData\Local\Temp\ccpruXkc.s:6060   .text.f_lseek:0000000000000052 L0
C:\Users\ANDRLU~1\AppData\Local\Temp\ccpruXkc.s:6101   .text.f_lseek:00000000000000a2 L0
C:\Users\ANDRLU~1\AppData\Local\Temp\ccpruXkc.s:6123   .text.f_lseek:00000000000000cc L0
C:\Users\ANDRLU~1\AppData\Local\Temp\ccpruXkc.s:6206   .text.f_lseek:0000000000000174 L0
C:\Users\ANDRLU~1\AppData\Local\Temp\ccpruXkc.s:6226   .text.f_lseek:0000000000000198 L0
C:\Users\ANDRLU~1\AppData\Local\Temp\ccpruXkc.s:6250   .text.f_lseek:00000000000001c6 L0
C:\Users\ANDRLU~1\AppData\Local\Temp\ccpruXkc.s:6262   .text.f_lseek:00000000000001e0 L0
C:\Users\ANDRLU~1\AppData\Local\Temp\ccpruXkc.s:6411   .text.f_lseek:00000000000002fa L0
C:\Users\ANDRLU~1\AppData\Local\Temp\ccpruXkc.s:6432   .text.f_lseek:0000000000000324 L0
C:\Users\ANDRLU~1\AppData\Local\Temp\ccpruXkc.s:6465   .text.f_lseek:0000000000000366 L0
C:\Users\ANDRLU~1\AppData\Local\Temp\ccpruXkc.s:6505   .text.f_opendir:0000000000000000 f_opendir
C:\Users\ANDRLU~1\AppData\Local\Temp\ccpruXkc.s:6512   .text.f_opendir:000000000000000e L0
C:\Users\ANDRLU~1\AppData\Local\Temp\ccpruXkc.s:6513   .text.f_opendir:0000000000000010 L0
C:\Users\ANDRLU~1\AppData\Local\Temp\ccpruXkc.s:6614   .text.f_opendir:00000000000000ce L0
C:\Users\ANDRLU~1\AppData\Local\Temp\ccpruXkc.s:6629   .text.f_closedir:0000000000000000 f_closedir
C:\Users\ANDRLU~1\AppData\Local\Temp\ccpruXkc.s:6634   .text.f_closedir:000000000000000a L0
C:\Users\ANDRLU~1\AppData\Local\Temp\ccpruXkc.s:6666   .text.f_readdir:0000000000000000 f_readdir
C:\Users\ANDRLU~1\AppData\Local\Temp\ccpruXkc.s:6677   .text.f_readdir:0000000000000016 L0
C:\Users\ANDRLU~1\AppData\Local\Temp\ccpruXkc.s:6740   .text.f_readdir:000000000000008a L0
C:\Users\ANDRLU~1\AppData\Local\Temp\ccpruXkc.s:6759   .text.f_readdir:00000000000000b0 L0
C:\Users\ANDRLU~1\AppData\Local\Temp\ccpruXkc.s:6768   .text.f_readdir:00000000000000c2 L0
C:\Users\ANDRLU~1\AppData\Local\Temp\ccpruXkc.s:6787   .text.f_readdir:00000000000000e6 L0
C:\Users\ANDRLU~1\AppData\Local\Temp\ccpruXkc.s:6800   .text.f_readdir:00000000000000fe L0
C:\Users\ANDRLU~1\AppData\Local\Temp\ccpruXkc.s:6898   .text.f_readdir:00000000000001b8 L0
C:\Users\ANDRLU~1\AppData\Local\Temp\ccpruXkc.s:6915   .text.f_readdir:00000000000001d6 L0
C:\Users\ANDRLU~1\AppData\Local\Temp\ccpruXkc.s:92     .text._ZL7mem_cpyPvPKvj:000000000000002c .L2
C:\Users\ANDRLU~1\AppData\Local\Temp\ccpruXkc.s:81     .text._ZL7mem_cpyPvPKvj:0000000000000018 .L4
C:\Users\ANDRLU~1\AppData\Local\Temp\ccpruXkc.s:131    .text._ZL7mem_cmpPKvS0_j:0000000000000036 .L6
C:\Users\ANDRLU~1\AppData\Local\Temp\ccpruXkc.s:112    .text._ZL7mem_cmpPKvS0_j:0000000000000012 .L8
C:\Users\ANDRLU~1\AppData\Local\Temp\ccpruXkc.s:206    .text._ZL9clst2sectP5FATFSm:000000000000007a .L12
C:\Users\ANDRLU~1\AppData\Local\Temp\ccpruXkc.s:193    .text._ZL9clst2sectP5FATFSm:0000000000000064 .L10
C:\Users\ANDRLU~1\AppData\Local\Temp\ccpruXkc.s:273    .text._ZL12get_ldnumberPPKc:0000000000000060 .L19
C:\Users\ANDRLU~1\AppData\Local\Temp\ccpruXkc.s:250    .text._ZL12get_ldnumberPPKc:000000000000003a .L16
C:\Users\ANDRLU~1\AppData\Local\Temp\ccpruXkc.s:260    .text._ZL12get_ldnumberPPKc:0000000000000048 .L18
C:\Users\ANDRLU~1\AppData\Local\Temp\ccpruXkc.s:238    .text._ZL12get_ldnumberPPKc:0000000000000024 .L15
GAS LISTING C:\Users\ANDRLU~1\AppData\Local\Temp\ccpruXkc.s 			page 126


C:\Users\ANDRLU~1\AppData\Local\Temp\ccpruXkc.s:277    .text._ZL12get_ldnumberPPKc:0000000000000066 .L22
C:\Users\ANDRLU~1\AppData\Local\Temp\ccpruXkc.s:281    .text._ZL12get_ldnumberPPKc:000000000000006c .L23
C:\Users\ANDRLU~1\AppData\Local\Temp\ccpruXkc.s:255    .text._ZL12get_ldnumberPPKc:0000000000000042 .L13
C:\Users\ANDRLU~1\AppData\Local\Temp\ccpruXkc.s:323    .text._ZL8validateP7FFOBJIDPP5FATFS:000000000000003c .L25
C:\Users\ANDRLU~1\AppData\Local\Temp\ccpruXkc.s:344    .text._ZL8validateP7FFOBJIDPP5FATFS:0000000000000062 .L27
C:\Users\ANDRLU~1\AppData\Local\Temp\ccpruXkc.s:349    .text._ZL8validateP7FFOBJIDPP5FATFS:000000000000006a .L28
C:\Users\ANDRLU~1\AppData\Local\Temp\ccpruXkc.s:333    .text._ZL8validateP7FFOBJIDPP5FATFS:000000000000004c .L31
C:\Users\ANDRLU~1\AppData\Local\Temp\ccpruXkc.s:355    .text._ZL8validateP7FFOBJIDPP5FATFS:0000000000000074 .L30
C:\Users\ANDRLU~1\AppData\Local\Temp\ccpruXkc.s:404    .text._ZL11sync_windowP5FATFS:0000000000000042 .L36
C:\Users\ANDRLU~1\AppData\Local\Temp\ccpruXkc.s:462    .text._ZL11sync_windowP5FATFS:00000000000000b8 .L35
C:\Users\ANDRLU~1\AppData\Local\Temp\ccpruXkc.s:388    .text._ZL11sync_windowP5FATFS:0000000000000026 .L32
C:\Users\ANDRLU~1\AppData\Local\Temp\ccpruXkc.s:511    .text._ZL11move_windowP5FATFSm:0000000000000044 .L42
C:\Users\ANDRLU~1\AppData\Local\Temp\ccpruXkc.s:500    .text._ZL11move_windowP5FATFSm:0000000000000032 .L37
C:\Users\ANDRLU~1\AppData\Local\Temp\ccpruXkc.s:533    .text._ZL11move_windowP5FATFSm:0000000000000072 .L39
C:\Users\ANDRLU~1\AppData\Local\Temp\ccpruXkc.s:612    .text._ZL7put_fatP5FATFSmm:0000000000000082 .L43
C:\Users\ANDRLU~1\AppData\Local\Temp\ccpruXkc.s:770    .text._ZL7put_fatP5FATFSmm:00000000000001b8 .L45
C:\Users\ANDRLU~1\AppData\Local\Temp\ccpruXkc.s:811    .text._ZL7put_fatP5FATFSmm:000000000000020a .L46
C:\Users\ANDRLU~1\AppData\Local\Temp\ccpruXkc.s:640    .text._ZL7put_fatP5FATFSmm:00000000000000b6 .L58
C:\Users\ANDRLU~1\AppData\Local\Temp\ccpruXkc.s:734    .text._ZL7put_fatP5FATFSmm:0000000000000170 .L47
C:\Users\ANDRLU~1\AppData\Local\Temp\ccpruXkc.s:884    .text._ZL7put_fatP5FATFSmm:000000000000029c .L54
C:\Users\ANDRLU~1\AppData\Local\Temp\ccpruXkc.s:720    .text._ZL7put_fatP5FATFSmm:0000000000000158 .L11
C:\Users\ANDRLU~1\AppData\Local\Temp\ccpruXkc.s:887    .text._ZL7put_fatP5FATFSmm:00000000000002a0 .L55
C:\Users\ANDRLU~1\AppData\Local\Temp\ccpruXkc.s:727    .text._ZL7put_fatP5FATFSmm:0000000000000164 .L50
C:\Users\ANDRLU~1\AppData\Local\Temp\ccpruXkc.s:822    .text._ZL7put_fatP5FATFSmm:000000000000021e .L12
C:\Users\ANDRLU~1\AppData\Local\Temp\ccpruXkc.s:1153   .text._ZL7get_fatP7FFOBJIDm:00000000000001fc .L64
C:\Users\ANDRLU~1\AppData\Local\Temp\ccpruXkc.s:1183   .text._ZL7get_fatP7FFOBJIDm:0000000000000232 .L65
C:\Users\ANDRLU~1\AppData\Local\Temp\ccpruXkc.s:1055   .text._ZL7get_fatP7FFOBJIDm:0000000000000138 .L61
C:\Users\ANDRLU~1\AppData\Local\Temp\ccpruXkc.s:1104   .text._ZL7get_fatP7FFOBJIDm:000000000000019a .L62
C:\Users\ANDRLU~1\AppData\Local\Temp\ccpruXkc.s:958    .text._ZL7get_fatP7FFOBJIDm:0000000000000078 .L71
C:\Users\ANDRLU~1\AppData\Local\Temp\ccpruXkc.s:1162   .text._ZL7get_fatP7FFOBJIDm:000000000000020c .L59
C:\Users\ANDRLU~1\AppData\Local\Temp\ccpruXkc.s:988    .text._ZL7get_fatP7FFOBJIDm:00000000000000b4 .L72
C:\Users\ANDRLU~1\AppData\Local\Temp\ccpruXkc.s:1193   .text._ZL7get_fatP7FFOBJIDm:0000000000000244 .L68
C:\Users\ANDRLU~1\AppData\Local\Temp\ccpruXkc.s:1045   .text._ZL7get_fatP7FFOBJIDm:0000000000000126 .L63
C:\Users\ANDRLU~1\AppData\Local\Temp\ccpruXkc.s:1202   .text._ZL7get_fatP7FFOBJIDm:0000000000000254 .L69
C:\Users\ANDRLU~1\AppData\Local\Temp\ccpruXkc.s:1115   .text._ZL7get_fatP7FFOBJIDm:00000000000001ae .L13
C:\Users\ANDRLU~1\AppData\Local\Temp\ccpruXkc.s:1211   .text._ZL7get_fatP7FFOBJIDm:0000000000000264 .L70
C:\Users\ANDRLU~1\AppData\Local\Temp\ccpruXkc.s:1447   .text._ZL7dir_sdiP3DIRm:00000000000001aa .L80
C:\Users\ANDRLU~1\AppData\Local\Temp\ccpruXkc.s:1469   .text._ZL7dir_sdiP3DIRm:00000000000001d0 .L81
C:\Users\ANDRLU~1\AppData\Local\Temp\ccpruXkc.s:1299   .text._ZL7dir_sdiP3DIRm:000000000000008e .L75
C:\Users\ANDRLU~1\AppData\Local\Temp\ccpruXkc.s:1373   .text._ZL7dir_sdiP3DIRm:000000000000011e .L76
C:\Users\ANDRLU~1\AppData\Local\Temp\ccpruXkc.s:1307   .text._ZL7dir_sdiP3DIRm:000000000000009c .L14
C:\Users\ANDRLU~1\AppData\Local\Temp\ccpruXkc.s:1363   .text._ZL7dir_sdiP3DIRm:000000000000010a .L78
C:\Users\ANDRLU~1\AppData\Local\Temp\ccpruXkc.s:1477   .text._ZL7dir_sdiP3DIRm:00000000000001dc .L84
C:\Users\ANDRLU~1\AppData\Local\Temp\ccpruXkc.s:1481   .text._ZL7dir_sdiP3DIRm:00000000000001e2 .L85
C:\Users\ANDRLU~1\AppData\Local\Temp\ccpruXkc.s:1485   .text._ZL7dir_sdiP3DIRm:00000000000001e8 .L86
C:\Users\ANDRLU~1\AppData\Local\Temp\ccpruXkc.s:1320   .text._ZL7dir_sdiP3DIRm:00000000000000b4 .L79
C:\Users\ANDRLU~1\AppData\Local\Temp\ccpruXkc.s:1400   .text._ZL7dir_sdiP3DIRm:0000000000000150 .L77
C:\Users\ANDRLU~1\AppData\Local\Temp\ccpruXkc.s:1383   .text._ZL7dir_sdiP3DIRm:0000000000000130 .L15
C:\Users\ANDRLU~1\AppData\Local\Temp\ccpruXkc.s:1473   .text._ZL7dir_sdiP3DIRm:00000000000001d6 .L83
C:\Users\ANDRLU~1\AppData\Local\Temp\ccpruXkc.s:1450   .text._ZL7dir_sdiP3DIRm:00000000000001ae .L73
C:\Users\ANDRLU~1\AppData\Local\Temp\ccpruXkc.s:1420   .text._ZL7dir_sdiP3DIRm:0000000000000176 .L16
C:\Users\ANDRLU~1\AppData\Local\Temp\ccpruXkc.s:1552   .text._ZL12create_chainP7FFOBJIDm:000000000000006e .L90
C:\Users\ANDRLU~1\AppData\Local\Temp\ccpruXkc.s:1835   .text._ZL12create_chainP7FFOBJIDm:000000000000028e .L105
C:\Users\ANDRLU~1\AppData\Local\Temp\ccpruXkc.s:1840   .text._ZL12create_chainP7FFOBJIDm:0000000000000296 .L91
C:\Users\ANDRLU~1\AppData\Local\Temp\ccpruXkc.s:1819   .text._ZL12create_chainP7FFOBJIDm:0000000000000274 .L107
C:\Users\ANDRLU~1\AppData\Local\Temp\ccpruXkc.s:1800   .text._ZL12create_chainP7FFOBJIDm:0000000000000252 .L89
C:\Users\ANDRLU~1\AppData\Local\Temp\ccpruXkc.s:1607   .text._ZL12create_chainP7FFOBJIDm:00000000000000dc .L94
GAS LISTING C:\Users\ANDRLU~1\AppData\Local\Temp\ccpruXkc.s 			page 127


C:\Users\ANDRLU~1\AppData\Local\Temp\ccpruXkc.s:1653   .text._ZL12create_chainP7FFOBJIDm:0000000000000138 .L95
C:\Users\ANDRLU~1\AppData\Local\Temp\ccpruXkc.s:1854   .text._ZL12create_chainP7FFOBJIDm:00000000000002ae .L109
C:\Users\ANDRLU~1\AppData\Local\Temp\ccpruXkc.s:1850   .text._ZL12create_chainP7FFOBJIDm:00000000000002a8 .L96
C:\Users\ANDRLU~1\AppData\Local\Temp\ccpruXkc.s:1715   .text._ZL12create_chainP7FFOBJIDm:00000000000001ae .L115
C:\Users\ANDRLU~1\AppData\Local\Temp\ccpruXkc.s:1789   .text._ZL12create_chainP7FFOBJIDm:000000000000023e .L100
C:\Users\ANDRLU~1\AppData\Local\Temp\ccpruXkc.s:1776   .text._ZL12create_chainP7FFOBJIDm:0000000000000224 .L116
C:\Users\ANDRLU~1\AppData\Local\Temp\ccpruXkc.s:1708   .text._ZL12create_chainP7FFOBJIDm:00000000000001a2 .L102
C:\Users\ANDRLU~1\AppData\Local\Temp\ccpruXkc.s:1749   .text._ZL12create_chainP7FFOBJIDm:00000000000001f0 .L99
C:\Users\ANDRLU~1\AppData\Local\Temp\ccpruXkc.s:1659   .text._ZL12create_chainP7FFOBJIDm:0000000000000142 .L97
C:\Users\ANDRLU~1\AppData\Local\Temp\ccpruXkc.s:1830   .text._ZL12create_chainP7FFOBJIDm:0000000000000286 .L117
C:\Users\ANDRLU~1\AppData\Local\Temp\ccpruXkc.s:1721   .text._ZL12create_chainP7FFOBJIDm:00000000000001b8 .L98
C:\Users\ANDRLU~1\AppData\Local\Temp\ccpruXkc.s:1825   .text._ZL12create_chainP7FFOBJIDm:000000000000027e .L110
C:\Users\ANDRLU~1\AppData\Local\Temp\ccpruXkc.s:1679   .text._ZL12create_chainP7FFOBJIDm:000000000000016a .L101
C:\Users\ANDRLU~1\AppData\Local\Temp\ccpruXkc.s:2261   .text._ZL8dir_nextP3DIRi:000000000000030a .L127
C:\Users\ANDRLU~1\AppData\Local\Temp\ccpruXkc.s:2265   .text._ZL8dir_nextP3DIRi:0000000000000310 .L128
C:\Users\ANDRLU~1\AppData\Local\Temp\ccpruXkc.s:1979   .text._ZL8dir_nextP3DIRi:00000000000000e0 .L120
C:\Users\ANDRLU~1\AppData\Local\Temp\ccpruXkc.s:2038   .text._ZL8dir_nextP3DIRi:000000000000014e .L121
C:\Users\ANDRLU~1\AppData\Local\Temp\ccpruXkc.s:1967   .text._ZL8dir_nextP3DIRi:00000000000000ca .L17
C:\Users\ANDRLU~1\AppData\Local\Temp\ccpruXkc.s:2030   .text._ZL8dir_nextP3DIRi:0000000000000140 .L138
C:\Users\ANDRLU~1\AppData\Local\Temp\ccpruXkc.s:2003   .text._ZL8dir_nextP3DIRi:000000000000010e .L118
C:\Users\ANDRLU~1\AppData\Local\Temp\ccpruXkc.s:2050   .text._ZL8dir_nextP3DIRi:0000000000000164 .L18
C:\Users\ANDRLU~1\AppData\Local\Temp\ccpruXkc.s:2225   .text._ZL8dir_nextP3DIRi:00000000000002c4 .L122
C:\Users\ANDRLU~1\AppData\Local\Temp\ccpruXkc.s:2249   .text._ZL8dir_nextP3DIRi:00000000000002f4 .L139
C:\Users\ANDRLU~1\AppData\Local\Temp\ccpruXkc.s:2269   .text._ZL8dir_nextP3DIRi:0000000000000316 .L132
C:\Users\ANDRLU~1\AppData\Local\Temp\ccpruXkc.s:2177   .text._ZL8dir_nextP3DIRi:0000000000000268 .L124
C:\Users\ANDRLU~1\AppData\Local\Temp\ccpruXkc.s:2218   .text._ZL8dir_nextP3DIRi:00000000000002b8 .L125
C:\Users\ANDRLU~1\AppData\Local\Temp\ccpruXkc.s:2191   .text._ZL8dir_nextP3DIRi:0000000000000282 .L126
C:\Users\ANDRLU~1\AppData\Local\Temp\ccpruXkc.s:2273   .text._ZL8dir_nextP3DIRi:000000000000031c .L135
C:\Users\ANDRLU~1\AppData\Local\Temp\ccpruXkc.s:2354   .text._ZL8check_fsP5FATFSm:0000000000000080 .L144
C:\Users\ANDRLU~1\AppData\Local\Temp\ccpruXkc.s:2357   .text._ZL8check_fsP5FATFSm:0000000000000084 .L145
C:\Users\ANDRLU~1\AppData\Local\Temp\ccpruXkc.s:2324   .text._ZL8check_fsP5FATFSm:0000000000000046 .L142
C:\Users\ANDRLU~1\AppData\Local\Temp\ccpruXkc.s:2359   .text._ZL8check_fsP5FATFSm:0000000000000086 .L140
C:\Users\ANDRLU~1\AppData\Local\Temp\ccpruXkc.s:2337   .text._ZL8check_fsP5FATFSm:0000000000000060 .L148
C:\Users\ANDRLU~1\AppData\Local\Temp\ccpruXkc.s:2351   .text._ZL8check_fsP5FATFSm:000000000000007c .L143
C:\Users\ANDRLU~1\AppData\Local\Temp\ccpruXkc.s:2968   .text._ZL11find_volumePPKcPP5FATFSh:00000000000004a0 .L172
C:\Users\ANDRLU~1\AppData\Local\Temp\ccpruXkc.s:3002   .text._ZL11find_volumePPKcPP5FATFSh:00000000000004de .L173
C:\Users\ANDRLU~1\AppData\Local\Temp\ccpruXkc.s:2450   .text._ZL11find_volumePPKcPP5FATFSh:00000000000000a0 .L151
C:\Users\ANDRLU~1\AppData\Local\Temp\ccpruXkc.s:2974   .text._ZL11find_volumePPKcPP5FATFSh:00000000000004aa .L149
C:\Users\ANDRLU~1\AppData\Local\Temp\ccpruXkc.s:2472   .text._ZL11find_volumePPKcPP5FATFSh:00000000000000cc .L152
C:\Users\ANDRLU~1\AppData\Local\Temp\ccpruXkc.s:2497   .text._ZL11find_volumePPKcPP5FATFSh:00000000000000fc .L210
C:\Users\ANDRLU~1\AppData\Local\Temp\ccpruXkc.s:3009   .text._ZL11find_volumePPKcPP5FATFSh:00000000000004ea .L181
C:\Users\ANDRLU~1\AppData\Local\Temp\ccpruXkc.s:2591   .text._ZL11find_volumePPKcPP5FATFSh:00000000000001ac .L171
C:\Users\ANDRLU~1\AppData\Local\Temp\ccpruXkc.s:2538   .text._ZL11find_volumePPKcPP5FATFSh:0000000000000148 .L155
C:\Users\ANDRLU~1\AppData\Local\Temp\ccpruXkc.s:2547   .text._ZL11find_volumePPKcPP5FATFSh:000000000000015a .L211
C:\Users\ANDRLU~1\AppData\Local\Temp\ccpruXkc.s:2518   .text._ZL11find_volumePPKcPP5FATFSh:0000000000000124 .L179
C:\Users\ANDRLU~1\AppData\Local\Temp\ccpruXkc.s:2523   .text._ZL11find_volumePPKcPP5FATFSh:000000000000012c .L154
C:\Users\ANDRLU~1\AppData\Local\Temp\ccpruXkc.s:2567   .text._ZL11find_volumePPKcPP5FATFSh:000000000000017c .L158
C:\Users\ANDRLU~1\AppData\Local\Temp\ccpruXkc.s:2962   .text._ZL11find_volumePPKcPP5FATFSh:0000000000000496 .L212
C:\Users\ANDRLU~1\AppData\Local\Temp\ccpruXkc.s:2557   .text._ZL11find_volumePPKcPP5FATFSh:000000000000016c .L180
C:\Users\ANDRLU~1\AppData\Local\Temp\ccpruXkc.s:2559   .text._ZL11find_volumePPKcPP5FATFSh:000000000000016e .L156
C:\Users\ANDRLU~1\AppData\Local\Temp\ccpruXkc.s:3084   .text._ZL11find_volumePPKcPP5FATFSh:000000000000056a .L213
C:\Users\ANDRLU~1\AppData\Local\Temp\ccpruXkc.s:2623   .text._ZL11find_volumePPKcPP5FATFSh:00000000000001ec .L159
C:\Users\ANDRLU~1\AppData\Local\Temp\ccpruXkc.s:3014   .text._ZL11find_volumePPKcPP5FATFSh:00000000000004f2 .L187
C:\Users\ANDRLU~1\AppData\Local\Temp\ccpruXkc.s:2715   .text._ZL11find_volumePPKcPP5FATFSh:00000000000002a4 .L160
C:\Users\ANDRLU~1\AppData\Local\Temp\ccpruXkc.s:3021   .text._ZL11find_volumePPKcPP5FATFSh:00000000000004fe .L188
C:\Users\ANDRLU~1\AppData\Local\Temp\ccpruXkc.s:3028   .text._ZL11find_volumePPKcPP5FATFSh:000000000000050a .L189
C:\Users\ANDRLU~1\AppData\Local\Temp\ccpruXkc.s:3035   .text._ZL11find_volumePPKcPP5FATFSh:0000000000000516 .L190
GAS LISTING C:\Users\ANDRLU~1\AppData\Local\Temp\ccpruXkc.s 			page 128


C:\Users\ANDRLU~1\AppData\Local\Temp\ccpruXkc.s:3042   .text._ZL11find_volumePPKcPP5FATFSh:0000000000000522 .L191
C:\Users\ANDRLU~1\AppData\Local\Temp\ccpruXkc.s:3186   .text._ZL11find_volumePPKcPP5FATFSh:0000000000000632 .L161
C:\Users\ANDRLU~1\AppData\Local\Temp\ccpruXkc.s:3089   .text._ZL11find_volumePPKcPP5FATFSh:0000000000000572 .L162
C:\Users\ANDRLU~1\AppData\Local\Temp\ccpruXkc.s:3077   .text._ZL11find_volumePPKcPP5FATFSh:000000000000055e .L214
C:\Users\ANDRLU~1\AppData\Local\Temp\ccpruXkc.s:2921   .text._ZL11find_volumePPKcPP5FATFSh:0000000000000440 .L19
C:\Users\ANDRLU~1\AppData\Local\Temp\ccpruXkc.s:3056   .text._ZL11find_volumePPKcPP5FATFSh:000000000000053a .L215
C:\Users\ANDRLU~1\AppData\Local\Temp\ccpruXkc.s:2484   .text._ZL11find_volumePPKcPP5FATFSh:00000000000000e4 .L153
C:\Users\ANDRLU~1\AppData\Local\Temp\ccpruXkc.s:3063   .text._ZL11find_volumePPKcPP5FATFSh:0000000000000546 .L198
C:\Users\ANDRLU~1\AppData\Local\Temp\ccpruXkc.s:2909   .text._ZL11find_volumePPKcPP5FATFSh:000000000000042a .L165
C:\Users\ANDRLU~1\AppData\Local\Temp\ccpruXkc.s:3070   .text._ZL11find_volumePPKcPP5FATFSh:0000000000000552 .L216
C:\Users\ANDRLU~1\AppData\Local\Temp\ccpruXkc.s:3275   .text._ZL11find_volumePPKcPP5FATFSh:00000000000006e4 .L110
C:\Users\ANDRLU~1\AppData\Local\Temp\ccpruXkc.s:3049   .text._ZL11find_volumePPKcPP5FATFSh:000000000000052e .L217
C:\Users\ANDRLU~1\AppData\Local\Temp\ccpruXkc.s:2949   .text._ZL11find_volumePPKcPP5FATFSh:0000000000000476 .L166
C:\Users\ANDRLU~1\AppData\Local\Temp\ccpruXkc.s:3433   .text._ZL8ld_clustP5FATFSPKh:0000000000000040 .L220
C:\Users\ANDRLU~1\AppData\Local\Temp\ccpruXkc.s:3420   .text._ZL8ld_clustP5FATFSPKh:000000000000002a .L218
C:\Users\ANDRLU~1\AppData\Local\Temp\ccpruXkc.s:3486   .text._ZL11follow_pathP3DIRPKc:0000000000000032 .L222
C:\Users\ANDRLU~1\AppData\Local\Temp\ccpruXkc.s:3522   .text._ZL11follow_pathP3DIRPKc:0000000000000078 .L257
C:\Users\ANDRLU~1\AppData\Local\Temp\ccpruXkc.s:3751   .text._ZL11follow_pathP3DIRPKc:0000000000000224 .L224
C:\Users\ANDRLU~1\AppData\Local\Temp\ccpruXkc.s:3554   .text._ZL11follow_pathP3DIRPKc:00000000000000b4 .L233
C:\Users\ANDRLU~1\AppData\Local\Temp\ccpruXkc.s:3833   .text._ZL11follow_pathP3DIRPKc:00000000000002ba .L227
C:\Users\ANDRLU~1\AppData\Local\Temp\ccpruXkc.s:3675   .text._ZL11follow_pathP3DIRPKc:000000000000018a .L265
C:\Users\ANDRLU~1\AppData\Local\Temp\ccpruXkc.s:3580   .text._ZL11follow_pathP3DIRPKc:00000000000000e0 .L244
C:\Users\ANDRLU~1\AppData\Local\Temp\ccpruXkc.s:3690   .text._ZL11follow_pathP3DIRPKc:00000000000001a6 .L249
C:\Users\ANDRLU~1\AppData\Local\Temp\ccpruXkc.s:3532   .text._ZL11follow_pathP3DIRPKc:000000000000008c .L221
C:\Users\ANDRLU~1\AppData\Local\Temp\ccpruXkc.s:3556   .text._ZL11follow_pathP3DIRPKc:00000000000000b6 .L232
C:\Users\ANDRLU~1\AppData\Local\Temp\ccpruXkc.s:3786   .text._ZL11follow_pathP3DIRPKc:0000000000000262 .L238
C:\Users\ANDRLU~1\AppData\Local\Temp\ccpruXkc.s:3452   .rodata._ZL11follow_pathP3DIRPKc.str1.1:0000000000000000 .LC2
C:\Users\ANDRLU~1\AppData\Local\Temp\ccpruXkc.s:3657   .text._ZL11follow_pathP3DIRPKc:000000000000016c .L266
C:\Users\ANDRLU~1\AppData\Local\Temp\ccpruXkc.s:3645   .text._ZL11follow_pathP3DIRPKc:0000000000000156 .L239
C:\Users\ANDRLU~1\AppData\Local\Temp\ccpruXkc.s:3660   .text._ZL11follow_pathP3DIRPKc:0000000000000170 .L240
C:\Users\ANDRLU~1\AppData\Local\Temp\ccpruXkc.s:3666   .text._ZL11follow_pathP3DIRPKc:000000000000017a .L242
C:\Users\ANDRLU~1\AppData\Local\Temp\ccpruXkc.s:3575   .text._ZL11follow_pathP3DIRPKc:00000000000000d8 .L243
C:\Users\ANDRLU~1\AppData\Local\Temp\ccpruXkc.s:3597   .text._ZL11follow_pathP3DIRPKc:0000000000000102 .L245
C:\Users\ANDRLU~1\AppData\Local\Temp\ccpruXkc.s:3837   .text._ZL11follow_pathP3DIRPKc:00000000000002c0 .L246
C:\Users\ANDRLU~1\AppData\Local\Temp\ccpruXkc.s:3680   .text._ZL11follow_pathP3DIRPKc:0000000000000192 .L247
C:\Users\ANDRLU~1\AppData\Local\Temp\ccpruXkc.s:3774   .text._ZL11follow_pathP3DIRPKc:000000000000024e .L253
C:\Users\ANDRLU~1\AppData\Local\Temp\ccpruXkc.s:3753   .text._ZL11follow_pathP3DIRPKc:0000000000000226 .L226
C:\Users\ANDRLU~1\AppData\Local\Temp\ccpruXkc.s:3796   .text._ZL11follow_pathP3DIRPKc:0000000000000274 .L228
C:\Users\ANDRLU~1\AppData\Local\Temp\ccpruXkc.s:3562   .text._ZL11follow_pathP3DIRPKc:00000000000000c0 .L229
C:\Users\ANDRLU~1\AppData\Local\Temp\ccpruXkc.s:3610   .text._ZL11follow_pathP3DIRPKc:0000000000000118 .L230
C:\Users\ANDRLU~1\AppData\Local\Temp\ccpruXkc.s:3778   .text._ZL11follow_pathP3DIRPKc:0000000000000254 .L234
C:\Users\ANDRLU~1\AppData\Local\Temp\ccpruXkc.s:3639   .text._ZL11follow_pathP3DIRPKc:000000000000014c .L235
C:\Users\ANDRLU~1\AppData\Local\Temp\ccpruXkc.s:3818   .text._ZL11follow_pathP3DIRPKc:000000000000029e .L236
C:\Users\ANDRLU~1\AppData\Local\Temp\ccpruXkc.s:3619   .text._ZL11follow_pathP3DIRPKc:0000000000000126 .L237
C:\Users\ANDRLU~1\AppData\Local\Temp\ccpruXkc.s:3615   .text._ZL11follow_pathP3DIRPKc:0000000000000120 .L267
C:\Users\ANDRLU~1\AppData\Local\Temp\ccpruXkc.s:3600   .text._ZL11follow_pathP3DIRPKc:0000000000000106 .L250
C:\Users\ANDRLU~1\AppData\Local\Temp\ccpruXkc.s:3924   .text.f_mount:000000000000008a .L272
C:\Users\ANDRLU~1\AppData\Local\Temp\ccpruXkc.s:3885   .text.f_mount:0000000000000044 .L270
C:\Users\ANDRLU~1\AppData\Local\Temp\ccpruXkc.s:3891   .text.f_mount:000000000000004e .L271
C:\Users\ANDRLU~1\AppData\Local\Temp\ccpruXkc.s:3915   .text.f_mount:0000000000000078 .L274
C:\Users\ANDRLU~1\AppData\Local\Temp\ccpruXkc.s:3903   .text.f_mount:0000000000000064 .L268
C:\Users\ANDRLU~1\AppData\Local\Temp\ccpruXkc.s:3995   .text.f_open:0000000000000074 .L275
C:\Users\ANDRLU~1\AppData\Local\Temp\ccpruXkc.s:4023   .text.f_open:00000000000000a8 .L331
C:\Users\ANDRLU~1\AppData\Local\Temp\ccpruXkc.s:4629   .text.f_open:000000000000053e .L278
C:\Users\ANDRLU~1\AppData\Local\Temp\ccpruXkc.s:4622   .text.f_open:0000000000000532 .L332
C:\Users\ANDRLU~1\AppData\Local\Temp\ccpruXkc.s:4695   .text.f_open:00000000000005b2 .L333
C:\Users\ANDRLU~1\AppData\Local\Temp\ccpruXkc.s:4572   .text.f_open:00000000000004de .L306
GAS LISTING C:\Users\ANDRLU~1\AppData\Local\Temp\ccpruXkc.s 			page 129


C:\Users\ANDRLU~1\AppData\Local\Temp\ccpruXkc.s:4159   .text.f_open:00000000000001b2 .L286
C:\Users\ANDRLU~1\AppData\Local\Temp\ccpruXkc.s:3991   .text.f_open:000000000000006e .L277
C:\Users\ANDRLU~1\AppData\Local\Temp\ccpruXkc.s:4066   .text.f_open:00000000000000fa .L334
C:\Users\ANDRLU~1\AppData\Local\Temp\ccpruXkc.s:4100   .text.f_open:000000000000013c .L284
C:\Users\ANDRLU~1\AppData\Local\Temp\ccpruXkc.s:4687   .text.f_open:00000000000005a6 .L305
C:\Users\ANDRLU~1\AppData\Local\Temp\ccpruXkc.s:4063   .text.f_open:00000000000000f6 .L281
C:\Users\ANDRLU~1\AppData\Local\Temp\ccpruXkc.s:4119   .text.f_open:0000000000000162 .L283
C:\Users\ANDRLU~1\AppData\Local\Temp\ccpruXkc.s:4080   .text.f_open:0000000000000116 .L282
C:\Users\ANDRLU~1\AppData\Local\Temp\ccpruXkc.s:4089   .text.f_open:0000000000000126 .L335
C:\Users\ANDRLU~1\AppData\Local\Temp\ccpruXkc.s:4138   .text.f_open:0000000000000188 .L285
C:\Users\ANDRLU~1\AppData\Local\Temp\ccpruXkc.s:4269   .text.f_open:000000000000028c .L336
C:\Users\ANDRLU~1\AppData\Local\Temp\ccpruXkc.s:4246   .text.f_open:0000000000000260 .L111
C:\Users\ANDRLU~1\AppData\Local\Temp\ccpruXkc.s:4483   .text.f_open:0000000000000430 .L298
C:\Users\ANDRLU~1\AppData\Local\Temp\ccpruXkc.s:4514   .text.f_open:000000000000046c .L296
C:\Users\ANDRLU~1\AppData\Local\Temp\ccpruXkc.s:4368   .text.f_open:0000000000000350 .L337
C:\Users\ANDRLU~1\AppData\Local\Temp\ccpruXkc.s:4706   .text.f_open:00000000000005c4 .L289
C:\Users\ANDRLU~1\AppData\Local\Temp\ccpruXkc.s:4579   .text.f_open:00000000000004ea .L308
C:\Users\ANDRLU~1\AppData\Local\Temp\ccpruXkc.s:4585   .text.f_open:00000000000004f4 .L309
C:\Users\ANDRLU~1\AppData\Local\Temp\ccpruXkc.s:4382   .text.f_open:0000000000000368 .L293
C:\Users\ANDRLU~1\AppData\Local\Temp\ccpruXkc.s:4308   .text.f_open:00000000000002da .L288
C:\Users\ANDRLU~1\AppData\Local\Temp\ccpruXkc.s:4463   .text.f_open:000000000000040c .L338
C:\Users\ANDRLU~1\AppData\Local\Temp\ccpruXkc.s:4636   .text.f_open:0000000000000548 .L330
C:\Users\ANDRLU~1\AppData\Local\Temp\ccpruXkc.s:4667   .text.f_open:0000000000000584 .L310
C:\Users\ANDRLU~1\AppData\Local\Temp\ccpruXkc.s:4675   .text.f_open:0000000000000592 .L311
C:\Users\ANDRLU~1\AppData\Local\Temp\ccpruXkc.s:4682   .text.f_open:000000000000059e .L312
C:\Users\ANDRLU~1\AppData\Local\Temp\ccpruXkc.s:4375   .text.f_open:000000000000035c .L292
C:\Users\ANDRLU~1\AppData\Local\Temp\ccpruXkc.s:4641   .text.f_open:0000000000000550 .L290
C:\Users\ANDRLU~1\AppData\Local\Temp\ccpruXkc.s:4509   .text.f_open:0000000000000464 .L339
C:\Users\ANDRLU~1\AppData\Local\Temp\ccpruXkc.s:4610   .text.f_open:000000000000051e .L315
C:\Users\ANDRLU~1\AppData\Local\Temp\ccpruXkc.s:4469   .text.f_open:0000000000000416 .L340
C:\Users\ANDRLU~1\AppData\Local\Temp\ccpruXkc.s:4615   .text.f_open:0000000000000526 .L297
C:\Users\ANDRLU~1\AppData\Local\Temp\ccpruXkc.s:4598   .text.f_open:000000000000050a .L317
C:\Users\ANDRLU~1\AppData\Local\Temp\ccpruXkc.s:4554   .text.f_open:00000000000004bc .L112
C:\Users\ANDRLU~1\AppData\Local\Temp\ccpruXkc.s:4691   .text.f_open:00000000000005ac .L318
C:\Users\ANDRLU~1\AppData\Local\Temp\ccpruXkc.s:4633   .text.f_open:0000000000000544 .L299
C:\Users\ANDRLU~1\AppData\Local\Temp\ccpruXkc.s:4059   .text.f_open:00000000000000f0 .L300
C:\Users\ANDRLU~1\AppData\Local\Temp\ccpruXkc.s:4604   .text.f_open:0000000000000514 .L319
C:\Users\ANDRLU~1\AppData\Local\Temp\ccpruXkc.s:4703   .text.f_open:00000000000005c0 .L294
C:\Users\ANDRLU~1\AppData\Local\Temp\ccpruXkc.s:4591   .text.f_open:00000000000004fe .L313
C:\Users\ANDRLU~1\AppData\Local\Temp\ccpruXkc.s:4163   .text.f_open:00000000000001b8 .L287
C:\Users\ANDRLU~1\AppData\Local\Temp\ccpruXkc.s:5086   .text.f_read:00000000000002c8 .L341
C:\Users\ANDRLU~1\AppData\Local\Temp\ccpruXkc.s:5123   .text.f_read:000000000000030a .L359
C:\Users\ANDRLU~1\AppData\Local\Temp\ccpruXkc.s:4793   .text.f_read:0000000000000094 .L343
C:\Users\ANDRLU~1\AppData\Local\Temp\ccpruXkc.s:5127   .text.f_read:0000000000000310 .L360
C:\Users\ANDRLU~1\AppData\Local\Temp\ccpruXkc.s:4954   .text.f_read:00000000000001c6 .L358
C:\Users\ANDRLU~1\AppData\Local\Temp\ccpruXkc.s:5004   .text.f_read:0000000000000226 .L347
C:\Users\ANDRLU~1\AppData\Local\Temp\ccpruXkc.s:4860   .text.f_read:0000000000000110 .L354
C:\Users\ANDRLU~1\AppData\Local\Temp\ccpruXkc.s:4867   .text.f_read:000000000000011c .L362
C:\Users\ANDRLU~1\AppData\Local\Temp\ccpruXkc.s:4924   .text.f_read:000000000000018c .L355
C:\Users\ANDRLU~1\AppData\Local\Temp\ccpruXkc.s:4899   .text.f_read:0000000000000158 .L356
C:\Users\ANDRLU~1\AppData\Local\Temp\ccpruXkc.s:5113   .text.f_read:00000000000002fa .L363
C:\Users\ANDRLU~1\AppData\Local\Temp\ccpruXkc.s:5120   .text.f_read:0000000000000306 .L364
C:\Users\ANDRLU~1\AppData\Local\Temp\ccpruXkc.s:4886   .text.f_read:0000000000000140 .L344
C:\Users\ANDRLU~1\AppData\Local\Temp\ccpruXkc.s:4981   .text.f_read:00000000000001fa .L113
C:\Users\ANDRLU~1\AppData\Local\Temp\ccpruXkc.s:5023   .text.f_read:000000000000024a .L345
C:\Users\ANDRLU~1\AppData\Local\Temp\ccpruXkc.s:4803   .text.f_read:00000000000000a6 .L346
C:\Users\ANDRLU~1\AppData\Local\Temp\ccpruXkc.s:4816   .text.f_read:00000000000000c0 .L365
GAS LISTING C:\Users\ANDRLU~1\AppData\Local\Temp\ccpruXkc.s 			page 130


C:\Users\ANDRLU~1\AppData\Local\Temp\ccpruXkc.s:4823   .text.f_read:00000000000000cc .L366
C:\Users\ANDRLU~1\AppData\Local\Temp\ccpruXkc.s:4830   .text.f_read:00000000000000d8 .L367
C:\Users\ANDRLU~1\AppData\Local\Temp\ccpruXkc.s:4880   .text.f_read:0000000000000136 .L351
C:\Users\ANDRLU~1\AppData\Local\Temp\ccpruXkc.s:5069   .text.f_read:00000000000002a6 .L352
C:\Users\ANDRLU~1\AppData\Local\Temp\ccpruXkc.s:4837   .text.f_read:00000000000000e4 .L353
C:\Users\ANDRLU~1\AppData\Local\Temp\ccpruXkc.s:5365   .text.f_write:00000000000001bc .L368
C:\Users\ANDRLU~1\AppData\Local\Temp\ccpruXkc.s:5692   .text.f_write:000000000000042e .L394
C:\Users\ANDRLU~1\AppData\Local\Temp\ccpruXkc.s:5212   .text.f_write:0000000000000094 .L370
C:\Users\ANDRLU~1\AppData\Local\Temp\ccpruXkc.s:5595   .text.f_write:0000000000000372 .L393
C:\Users\ANDRLU~1\AppData\Local\Temp\ccpruXkc.s:5217   .text.f_write:000000000000009c .L371
C:\Users\ANDRLU~1\AppData\Local\Temp\ccpruXkc.s:5393   .text.f_write:00000000000001f0 .L397
C:\Users\ANDRLU~1\AppData\Local\Temp\ccpruXkc.s:5403   .text.f_write:0000000000000202 .L398
C:\Users\ANDRLU~1\AppData\Local\Temp\ccpruXkc.s:5277   .text.f_write:000000000000010e .L373
C:\Users\ANDRLU~1\AppData\Local\Temp\ccpruXkc.s:5411   .text.f_write:0000000000000210 .L399
C:\Users\ANDRLU~1\AppData\Local\Temp\ccpruXkc.s:5424   .text.f_write:000000000000022a .L400
C:\Users\ANDRLU~1\AppData\Local\Temp\ccpruXkc.s:5477   .text.f_write:000000000000028e .L383
C:\Users\ANDRLU~1\AppData\Local\Temp\ccpruXkc.s:5346   .text.f_write:0000000000000196 .L384
C:\Users\ANDRLU~1\AppData\Local\Temp\ccpruXkc.s:5434   .text.f_write:000000000000023c .L385
C:\Users\ANDRLU~1\AppData\Local\Temp\ccpruXkc.s:5296   .text.f_write:0000000000000132 .L379
C:\Users\ANDRLU~1\AppData\Local\Temp\ccpruXkc.s:5461   .text.f_write:000000000000026e .L401
C:\Users\ANDRLU~1\AppData\Local\Temp\ccpruXkc.s:5545   .text.f_write:0000000000000312 .L387
C:\Users\ANDRLU~1\AppData\Local\Temp\ccpruXkc.s:5454   .text.f_write:0000000000000262 .L386
C:\Users\ANDRLU~1\AppData\Local\Temp\ccpruXkc.s:5664   .text.f_write:00000000000003fa .L402
C:\Users\ANDRLU~1\AppData\Local\Temp\ccpruXkc.s:5515   .text.f_write:00000000000002d4 .L390
C:\Users\ANDRLU~1\AppData\Local\Temp\ccpruXkc.s:5684   .text.f_write:0000000000000420 .L403
C:\Users\ANDRLU~1\AppData\Local\Temp\ccpruXkc.s:5583   .text.f_write:000000000000035c .L392
C:\Users\ANDRLU~1\AppData\Local\Temp\ccpruXkc.s:5501   .text.f_write:00000000000002ba .L372
C:\Users\ANDRLU~1\AppData\Local\Temp\ccpruXkc.s:5622   .text.f_write:00000000000003a6 .L114
C:\Users\ANDRLU~1\AppData\Local\Temp\ccpruXkc.s:5223   .text.f_write:00000000000000a6 .L374
C:\Users\ANDRLU~1\AppData\Local\Temp\ccpruXkc.s:5241   .text.f_write:00000000000000c8 .L375
C:\Users\ANDRLU~1\AppData\Local\Temp\ccpruXkc.s:5235   .text.f_write:00000000000000be .L376
C:\Users\ANDRLU~1\AppData\Local\Temp\ccpruXkc.s:5675   .text.f_write:0000000000000410 .L404
C:\Users\ANDRLU~1\AppData\Local\Temp\ccpruXkc.s:5493   .text.f_write:00000000000002ac .L388
C:\Users\ANDRLU~1\AppData\Local\Temp\ccpruXkc.s:5737   .text.f_sync:000000000000003c .L405
C:\Users\ANDRLU~1\AppData\Local\Temp\ccpruXkc.s:5751   .text.f_sync:0000000000000054 .L413
C:\Users\ANDRLU~1\AppData\Local\Temp\ccpruXkc.s:5852   .text.f_sync:000000000000011a .L414
C:\Users\ANDRLU~1\AppData\Local\Temp\ccpruXkc.s:5843   .text.f_sync:000000000000010a .L408
C:\Users\ANDRLU~1\AppData\Local\Temp\ccpruXkc.s:5859   .text.f_sync:0000000000000126 .L415
C:\Users\ANDRLU~1\AppData\Local\Temp\ccpruXkc.s:5840   .text.f_sync:0000000000000106 .L411
C:\Users\ANDRLU~1\AppData\Local\Temp\ccpruXkc.s:5789   .text.f_sync:00000000000000a0 .L407
C:\Users\ANDRLU~1\AppData\Local\Temp\ccpruXkc.s:5828   .text.f_sync:00000000000000ee .L409
C:\Users\ANDRLU~1\AppData\Local\Temp\ccpruXkc.s:5871   .text.f_sync:000000000000013c .L410
C:\Users\ANDRLU~1\AppData\Local\Temp\ccpruXkc.s:5997   .text.f_close:0000000000000032 .L418
C:\Users\ANDRLU~1\AppData\Local\Temp\ccpruXkc.s:5987   .text.f_close:0000000000000022 .L416
C:\Users\ANDRLU~1\AppData\Local\Temp\ccpruXkc.s:6322   .text.f_lseek:0000000000000250 .L419
C:\Users\ANDRLU~1\AppData\Local\Temp\ccpruXkc.s:6087   .text.f_lseek:0000000000000086 .L421
C:\Users\ANDRLU~1\AppData\Local\Temp\ccpruXkc.s:6112   .text.f_lseek:00000000000000b6 .L115
C:\Users\ANDRLU~1\AppData\Local\Temp\ccpruXkc.s:6194   .text.f_lseek:000000000000015c .L422
C:\Users\ANDRLU~1\AppData\Local\Temp\ccpruXkc.s:6216   .text.f_lseek:0000000000000184 .L423
C:\Users\ANDRLU~1\AppData\Local\Temp\ccpruXkc.s:6348   .text.f_lseek:0000000000000280 .L441
C:\Users\ANDRLU~1\AppData\Local\Temp\ccpruXkc.s:6278   .text.f_lseek:00000000000001fc .L427
C:\Users\ANDRLU~1\AppData\Local\Temp\ccpruXkc.s:6434   .text.f_lseek:0000000000000326 .L435
C:\Users\ANDRLU~1\AppData\Local\Temp\ccpruXkc.s:6497   .text.f_lseek:000000000000039e .L439
C:\Users\ANDRLU~1\AppData\Local\Temp\ccpruXkc.s:6487   .text.f_lseek:000000000000038c .L442
C:\Users\ANDRLU~1\AppData\Local\Temp\ccpruXkc.s:6266   .text.f_lseek:00000000000001e6 .L116
C:\Users\ANDRLU~1\AppData\Local\Temp\ccpruXkc.s:6300   .text.f_lseek:0000000000000226 .L437
C:\Users\ANDRLU~1\AppData\Local\Temp\ccpruXkc.s:6375   .text.f_lseek:00000000000002b6 .L443
GAS LISTING C:\Users\ANDRLU~1\AppData\Local\Temp\ccpruXkc.s 			page 131


C:\Users\ANDRLU~1\AppData\Local\Temp\ccpruXkc.s:6384   .text.f_lseek:00000000000002c6 .L444
C:\Users\ANDRLU~1\AppData\Local\Temp\ccpruXkc.s:6208   .text.f_lseek:0000000000000176 .L424
C:\Users\ANDRLU~1\AppData\Local\Temp\ccpruXkc.s:6468   .text.f_lseek:000000000000036a .L445
C:\Users\ANDRLU~1\AppData\Local\Temp\ccpruXkc.s:6477   .text.f_lseek:000000000000037a .L433
C:\Users\ANDRLU~1\AppData\Local\Temp\ccpruXkc.s:6228   .text.f_lseek:000000000000019a .L428
C:\Users\ANDRLU~1\AppData\Local\Temp\ccpruXkc.s:6393   .text.f_lseek:00000000000002d6 .L429
C:\Users\ANDRLU~1\AppData\Local\Temp\ccpruXkc.s:6400   .text.f_lseek:00000000000002e4 .L431
C:\Users\ANDRLU~1\AppData\Local\Temp\ccpruXkc.s:6545   .text.f_opendir:0000000000000046 .L446
C:\Users\ANDRLU~1\AppData\Local\Temp\ccpruXkc.s:6559   .text.f_opendir:000000000000005e .L454
C:\Users\ANDRLU~1\AppData\Local\Temp\ccpruXkc.s:6608   .text.f_opendir:00000000000000c2 .L449
C:\Users\ANDRLU~1\AppData\Local\Temp\ccpruXkc.s:6592   .text.f_opendir:00000000000000a2 .L450
C:\Users\ANDRLU~1\AppData\Local\Temp\ccpruXkc.s:6617   .text.f_opendir:00000000000000d2 .L452
C:\Users\ANDRLU~1\AppData\Local\Temp\ccpruXkc.s:6621   .text.f_opendir:00000000000000d8 .L453
C:\Users\ANDRLU~1\AppData\Local\Temp\ccpruXkc.s:6541   .text.f_opendir:0000000000000040 .L448
C:\Users\ANDRLU~1\AppData\Local\Temp\ccpruXkc.s:6653   .text.f_closedir:0000000000000028 .L455
C:\Users\ANDRLU~1\AppData\Local\Temp\ccpruXkc.s:6715   .text.f_readdir:000000000000005a .L457
C:\Users\ANDRLU~1\AppData\Local\Temp\ccpruXkc.s:6707   .text.f_readdir:000000000000004a .L475
C:\Users\ANDRLU~1\AppData\Local\Temp\ccpruXkc.s:6742   .text.f_readdir:000000000000008c .L460
C:\Users\ANDRLU~1\AppData\Local\Temp\ccpruXkc.s:6905   .text.f_readdir:00000000000001c2 .L470
C:\Users\ANDRLU~1\AppData\Local\Temp\ccpruXkc.s:6784   .text.f_readdir:00000000000000e0 .L476
C:\Users\ANDRLU~1\AppData\Local\Temp\ccpruXkc.s:6902   .text.f_readdir:00000000000001be .L471
C:\Users\ANDRLU~1\AppData\Local\Temp\ccpruXkc.s:6731   .text.f_readdir:0000000000000076 .L462
C:\Users\ANDRLU~1\AppData\Local\Temp\ccpruXkc.s:6789   .text.f_readdir:00000000000000e8 .L463
C:\Users\ANDRLU~1\AppData\Local\Temp\ccpruXkc.s:6889   .text.f_readdir:00000000000001a4 .L465
C:\Users\ANDRLU~1\AppData\Local\Temp\ccpruXkc.s:6822   .text.f_readdir:0000000000000122 .L469
C:\Users\ANDRLU~1\AppData\Local\Temp\ccpruXkc.s:6837   .text.f_readdir:000000000000013e .L477
C:\Users\ANDRLU~1\AppData\Local\Temp\ccpruXkc.s:6845   .text.f_readdir:000000000000014c .L478
C:\Users\ANDRLU~1\AppData\Local\Temp\ccpruXkc.s:6818   .text.f_readdir:000000000000011c .L466
C:\Users\ANDRLU~1\AppData\Local\Temp\ccpruXkc.s:6807   .text.f_readdir:000000000000010a .L467
C:\Users\ANDRLU~1\AppData\Local\Temp\ccpruXkc.s:6811   .text.f_readdir:0000000000000110 .L468

UNDEFINED SYMBOLS
__muluhisi3
disk_status
disk_write
disk_read
disk_initialize
__udivmodsi4
disk_ioctl
__do_copy_data
__do_clear_bss
