GAS LISTING C:\Users\ANDRLU~1\AppData\Local\Temp\ccowugmU.s 			page 1


   1               		.file	"sevenSegmentsMuxDisplay.cpp"
   2               	__SP_H__ = 0x3e
   3               	__SP_L__ = 0x3d
   4               	__SREG__ = 0x3f
   5               	__tmp_reg__ = 0
   6               	__zero_reg__ = 1
   7               		.text
   8               		.section	.text._Z7getTickv,"ax",@progbits
   9               		.weak	_Z7getTickv
  11               	_Z7getTickv:
  12               	/* prologue: function */
  13               	/* frame size = 0 */
  14               	/* stack size = 0 */
  15               	.L__stack_usage = 0
  16 0000 60E0      		ldi r22,0
  17 0002 70E0      		ldi r23,0
  18 0004 CB01      		movw r24,r22
  19               	/* epilogue start */
  20 0006 0895      		ret
  22               		.section	.text._ZN23SevenSegmentsMuxDisplayC2Ev,"ax",@progbits
  23               	.global	_ZN23SevenSegmentsMuxDisplayC2Ev
  25               	_ZN23SevenSegmentsMuxDisplayC2Ev:
  26               	/* prologue: function */
  27               	/* frame size = 0 */
  28               	/* stack size = 0 */
  29               	.L__stack_usage = 0
  30 0000 A82F      		mov r26,r24
  31 0002 B92F      		mov r27,r25
  32 0004 1196      		adiw r26,1
  33 0006 1C92      		st X,__zero_reg__
  34 0008 1E92      		st -X,__zero_reg__
  35 000a 1396      		adiw r26,2+1
  36 000c 1C92      		st X,__zero_reg__
  37 000e 1E92      		st -X,__zero_reg__
  38 0010 1297      		sbiw r26,2
  39 0012 1596      		adiw r26,4+1
  40 0014 1C92      		st X,__zero_reg__
  41 0016 1E92      		st -X,__zero_reg__
  42 0018 1497      		sbiw r26,4
  43 001a 1796      		adiw r26,6+1
  44 001c 1C92      		st X,__zero_reg__
  45 001e 1E92      		st -X,__zero_reg__
  46 0020 1697      		sbiw r26,6
  47 0022 1996      		adiw r26,9
  48 0024 1C92      		st X,__zero_reg__
  49 0026 1997      		sbiw r26,9
  50 0028 1896      		adiw r26,8
  51 002a 8C91      		ld r24,X
  52 002c 1897      		sbiw r26,8
  53 002e 887F      		andi r24,lo8(-8)
  54 0030 1896      		adiw r26,8
  55 0032 8C93      		st X,r24
  56 0034 1897      		sbiw r26,8
  57 0036 1A96      		adiw r26,10
  58 0038 8C91      		ld r24,X
  59 003a 1A97      		sbiw r26,10
  60 003c 807C      		andi r24,lo8(-64)
GAS LISTING C:\Users\ANDRLU~1\AppData\Local\Temp\ccowugmU.s 			page 2


  61 003e 1A96      		adiw r26,10
  62 0040 8C93      		st X,r24
  63 0042 1A97      		sbiw r26,10
  64 0044 FD01      		movw r30,r26
  65 0046 3B96      		adiw r30,11
  66 0048 9D01      		movw r18,r26
  67 004a 2D5E      		subi r18,-19
  68 004c 3F4F      		sbci r19,-1
  69 004e 8FEF      		ldi r24,lo8(-1)
  70               	.L3:
  71 0050 8193      		st Z+,r24
  72 0052 1782      		std Z+7,__zero_reg__
  73 0054 E217      		cp r30,r18
  74 0056 F307      		cpc r31,r19
  75 0058 01F4      		brne .L3
  76 005a 5B96      		adiw r26,27
  77 005c 8C91      		ld r24,X
  78 005e 5B97      		sbiw r26,27
  79 0060 887F      		andi r24,lo8(-8)
  80 0062 8860      		ori r24,lo8(1<<3)
  81 0064 5B96      		adiw r26,27
  82 0066 8C93      		st X,r24
  83 0068 5B97      		sbiw r26,27
  84 006a 5D96      		adiw r26,28+1
  85 006c 1C92      		st X,__zero_reg__
  86 006e 1E92      		st -X,__zero_reg__
  87 0070 5C97      		sbiw r26,28
  88               	/* epilogue start */
  89 0072 0895      		ret
  91               	.global	_ZN23SevenSegmentsMuxDisplayC1Ev
  92               		.set	_ZN23SevenSegmentsMuxDisplayC1Ev,_ZN23SevenSegmentsMuxDisplayC2Ev
  93               		.section	.text._ZN23SevenSegmentsMuxDisplayD2Ev,"ax",@progbits
  94               	.global	_ZN23SevenSegmentsMuxDisplayD2Ev
  96               	_ZN23SevenSegmentsMuxDisplayD2Ev:
  97               	/* prologue: function */
  98               	/* frame size = 0 */
  99               	/* stack size = 0 */
 100               	.L__stack_usage = 0
 101               	/* epilogue start */
 102 0000 0895      		ret
 104               	.global	_ZN23SevenSegmentsMuxDisplayD1Ev
 105               		.set	_ZN23SevenSegmentsMuxDisplayD1Ev,_ZN23SevenSegmentsMuxDisplayD2Ev
 106               		.section	.text._ZN23SevenSegmentsMuxDisplay4initENS_6DigitsE24SevenSegmentsDisplayType,"ax",@progb
 107               	.global	_ZN23SevenSegmentsMuxDisplay4initENS_6DigitsE24SevenSegmentsDisplayType
 109               	_ZN23SevenSegmentsMuxDisplay4initENS_6DigitsE24SevenSegmentsDisplayType:
 110 0000 0F93      		push r16
 111 0002 1F93      		push r17
 112 0004 CF93      		push r28
 113 0006 DF93      		push r29
 114               	/* prologue: function */
 115               	/* frame size = 0 */
 116               	/* stack size = 4 */
 117               	.L__stack_usage = 4
 118 0008 E82F      		mov r30,r24
 119 000a F92F      		mov r31,r25
 120 000c 262F      		mov r18,r22
 121 000e 372F      		mov r19,r23
GAS LISTING C:\Users\ANDRLU~1\AppData\Local\Temp\ccowugmU.s 			page 3


 122 0010 8285      		ldd r24,Z+10
 123 0012 807C      		andi r24,lo8(-64)
 124 0014 8287      		std Z+10,r24
 125 0016 1186      		std Z+9,__zero_reg__
 126 0018 838D      		ldd r24,Z+27
 127 001a 8D7F      		andi r24,lo8(~(1<<1))
 128 001c 838F      		std Z+27,r24
 129 001e 82FB      		bst r24,2
 130 0020 8827      		clr r24
 131 0022 80F9      		bld r24,0
 132 0024 8823      		tst r24
 133 0026 01F4      		brne .+2
 134 0028 00C0      		rjmp .L10
 135 002a 9EEF      		ldi r25,lo8(-2)
 136 002c 960F      		add r25,r22
 137 002e 9730      		cpi r25,lo8(7)
 138 0030 00F0      		brlo .+2
 139 0032 00C0      		rjmp .L11
 140 0034 D901      		movw r26,r18
 141 0036 BB27      		clr r27
 142 0038 6085      		ldd r22,Z+8
 143 003a 6770      		andi r22,lo8(7)
 144 003c 6A0F      		add r22,r26
 145 003e 7B2F      		mov r23,r27
 146 0040 711D      		adc r23,__zero_reg__
 147 0042 6930      		cpi r22,9
 148 0044 7105      		cpc r23,__zero_reg__
 149 0046 04F0      		brlt .+2
 150 0048 00C0      		rjmp .L12
 151 004a A050      		subi r26,lo8(-(_ZL31constSevenSegmentMuxDisplayMask-1))
 152 004c B040      		sbci r27,hi8(-(_ZL31constSevenSegmentMuxDisplayMask-1))
 153 004e AC91      		ld r26,X
 154 0050 C081      		ld r28,Z
 155 0052 D181      		ldd r29,Z+1
 156 0054 9FEF      		ldi r25,lo8(-1)
 157 0056 9883      		st Y,r25
 158 0058 C481      		ldd r28,Z+4
 159 005a D581      		ldd r29,Z+5
 160 005c 9881      		ld r25,Y
 161 005e 6A2F      		mov r22,r26
 162 0060 70E0      		ldi r23,0
 163 0062 5085      		ldd r21,Z+8
 164 0064 5770      		andi r21,lo8(7)
 165 0066 8B01      		movw r16,r22
 166 0068 00C0      		rjmp 2f
 167               		1:
 168 006a 000F      		lsl r16
 169 006c 111F      		rol r17
 170               		2:
 171 006e 5A95      		dec r21
 172 0070 02F4      		brpl 1b
 173 0072 902B      		or r25,r16
 174 0074 9883      		st Y,r25
 175 0076 C281      		ldd r28,Z+2
 176 0078 D381      		ldd r29,Z+3
 177 007a 9FEF      		ldi r25,lo8(-1)
 178 007c 940F      		add r25,r20
GAS LISTING C:\Users\ANDRLU~1\AppData\Local\Temp\ccowugmU.s 			page 4


 179 007e 9883      		st Y,r25
 180 0080 938D      		ldd r25,Z+27
 181 0082 93FF      		sbrs r25,3
 182 0084 00C0      		rjmp .L8
 183 0086 C681      		ldd r28,Z+6
 184 0088 D781      		ldd r29,Z+7
 185 008a 5881      		ld r21,Y
 186 008c 9085      		ldd r25,Z+8
 187 008e 9770      		andi r25,lo8(7)
 188 0090 00C0      		rjmp 2f
 189               		1:
 190 0092 660F      		lsl r22
 191 0094 771F      		rol r23
 192               		2:
 193 0096 9A95      		dec r25
 194 0098 02F4      		brpl 1b
 195 009a 6095      		com r22
 196 009c 6523      		and r22,r21
 197 009e 6883      		st Y,r22
 198               	.L9:
 199 00a0 338D      		ldd r19,Z+27
 200 00a2 40FB      		bst r20,0
 201 00a4 30F9      		bld r19,0
 202 00a6 9FEF      		ldi r25,lo8(-1)
 203 00a8 920F      		add r25,r18
 204 00aa 9770      		andi r25,lo8(7)
 205 00ac 2285      		ldd r18,Z+10
 206 00ae 287F      		andi r18,lo8(-8)
 207 00b0 922B      		or r25,r18
 208 00b2 9287      		std Z+10,r25
 209 00b4 A187      		std Z+9,r26
 210 00b6 932F      		mov r25,r19
 211 00b8 9260      		ori r25,lo8(1<<1)
 212 00ba 938F      		std Z+27,r25
 213 00bc 20E0      		ldi r18,0
 214 00be 30E0      		ldi r19,0
 215 00c0 00C0      		rjmp .L7
 216               	.L8:
 217 00c2 C681      		ldd r28,Z+6
 218 00c4 D781      		ldd r29,Z+7
 219 00c6 9881      		ld r25,Y
 220 00c8 5085      		ldd r21,Z+8
 221 00ca 5770      		andi r21,lo8(7)
 222 00cc 00C0      		rjmp 2f
 223               		1:
 224 00ce 660F      		lsl r22
 225 00d0 771F      		rol r23
 226               		2:
 227 00d2 5A95      		dec r21
 228 00d4 02F4      		brpl 1b
 229 00d6 962B      		or r25,r22
 230 00d8 9883      		st Y,r25
 231 00da 00C0      		rjmp .L9
 232               	.L10:
 233 00dc 20ED      		ldi r18,lo8(-48)
 234 00de 30E0      		ldi r19,0
 235               	.L7:
GAS LISTING C:\Users\ANDRLU~1\AppData\Local\Temp\ccowugmU.s 			page 5


 236 00e0 358F      		std Z+29,r19
 237 00e2 248F      		std Z+28,r18
 238               	/* epilogue start */
 239 00e4 DF91      		pop r29
 240 00e6 CF91      		pop r28
 241 00e8 1F91      		pop r17
 242 00ea 0F91      		pop r16
 243 00ec 0895      		ret
 244               	.L11:
 245 00ee 22E1      		ldi r18,lo8(18)
 246 00f0 30E0      		ldi r19,0
 247 00f2 80E0      		ldi r24,0
 248 00f4 00C0      		rjmp .L7
 249               	.L12:
 250 00f6 27ED      		ldi r18,lo8(-41)
 251 00f8 30E0      		ldi r19,0
 252 00fa 80E0      		ldi r24,0
 253 00fc 00C0      		rjmp .L7
 255               		.section	.text._ZN23SevenSegmentsMuxDisplay8setPortsEPVhS1_h10LogicLevel,"ax",@progbits
 256               	.global	_ZN23SevenSegmentsMuxDisplay8setPortsEPVhS1_h10LogicLevel
 258               	_ZN23SevenSegmentsMuxDisplay8setPortsEPVhS1_h10LogicLevel:
 259 0000 0F93      		push r16
 260 0002 CF93      		push r28
 261 0004 DF93      		push r29
 262               	/* prologue: function */
 263               	/* frame size = 0 */
 264               	/* stack size = 3 */
 265               	.L__stack_usage = 3
 266 0006 E82F      		mov r30,r24
 267 0008 F92F      		mov r31,r25
 268 000a 862F      		mov r24,r22
 269 000c 972F      		mov r25,r23
 270 000e C42F      		mov r28,r20
 271 0010 D52F      		mov r29,r21
 272 0012 422F      		mov r20,r18
 273 0014 1182      		std Z+1,__zero_reg__
 274 0016 1082      		st Z,__zero_reg__
 275 0018 1382      		std Z+3,__zero_reg__
 276 001a 1282      		std Z+2,__zero_reg__
 277 001c 1582      		std Z+5,__zero_reg__
 278 001e 1482      		std Z+4,__zero_reg__
 279 0020 1782      		std Z+7,__zero_reg__
 280 0022 1682      		std Z+6,__zero_reg__
 281 0024 2085      		ldd r18,Z+8
 282 0026 287F      		andi r18,lo8(-8)
 283 0028 2087      		std Z+8,r18
 284 002a 238D      		ldd r18,Z+27
 285 002c 2B7F      		andi r18,lo8(~(1<<2))
 286 002e 238F      		std Z+27,r18
 287 0030 2285      		ldd r18,Z+10
 288 0032 277C      		andi r18,lo8(-57)
 289 0034 2287      		std Z+10,r18
 290 0036 9C01      		movw r18,r24
 291 0038 2352      		subi r18,35
 292 003a 3109      		sbc r19,__zero_reg__
 293 003c 2930      		cpi r18,9
 294 003e 3105      		cpc r19,__zero_reg__
GAS LISTING C:\Users\ANDRLU~1\AppData\Local\Temp\ccowugmU.s 			page 6


 295 0040 00F0      		brlo .+2
 296 0042 00C0      		rjmp .L15
 297 0044 9E01      		movw r18,r28
 298 0046 2352      		subi r18,35
 299 0048 3109      		sbc r19,__zero_reg__
 300 004a 2930      		cpi r18,9
 301 004c 3105      		cpc r19,__zero_reg__
 302 004e 00F0      		brlo .+2
 303 0050 00C0      		rjmp .L16
 304 0052 4830      		cpi r20,lo8(8)
 305 0054 00F0      		brlo .+2
 306 0056 00C0      		rjmp .L17
 307 0058 9C01      		movw r18,r24
 308 005a 2052      		subi r18,32
 309 005c 3109      		sbc r19,__zero_reg__
 310 005e ABEA      		ldi r26,lo8(-85)
 311 0060 BAEA      		ldi r27,lo8(-86)
 312 0062 0E94 0000 		call __umulhisi3
 313 0066 9C01      		movw r18,r24
 314 0068 3695      		lsr r19
 315 006a 2795      		ror r18
 316 006c 8E7F      		andi r24,254
 317 006e 820F      		add r24,r18
 318 0070 931F      		adc r25,r19
 319 0072 9C01      		movw r18,r24
 320 0074 2F5D      		subi r18,-33
 321 0076 3F4F      		sbci r19,-1
 322 0078 3183      		std Z+1,r19
 323 007a 2083      		st Z,r18
 324 007c 8296      		adiw r24,34
 325 007e 9383      		std Z+3,r25
 326 0080 8283      		std Z+2,r24
 327 0082 9E01      		movw r18,r28
 328 0084 2052      		subi r18,32
 329 0086 3109      		sbc r19,__zero_reg__
 330 0088 0E94 0000 		call __umulhisi3
 331 008c 9C01      		movw r18,r24
 332 008e 3695      		lsr r19
 333 0090 2795      		ror r18
 334 0092 8E7F      		andi r24,254
 335 0094 820F      		add r24,r18
 336 0096 931F      		adc r25,r19
 337 0098 9C01      		movw r18,r24
 338 009a 2F5D      		subi r18,-33
 339 009c 3F4F      		sbci r19,-1
 340 009e 3583      		std Z+5,r19
 341 00a0 2483      		std Z+4,r18
 342 00a2 8296      		adiw r24,34
 343 00a4 9783      		std Z+7,r25
 344 00a6 8683      		std Z+6,r24
 345 00a8 4770      		andi r20,lo8(7)
 346 00aa 8085      		ldd r24,Z+8
 347 00ac 887F      		andi r24,lo8(-8)
 348 00ae 842B      		or r24,r20
 349 00b0 8087      		std Z+8,r24
 350 00b2 838D      		ldd r24,Z+27
 351 00b4 00FB      		bst r16,0
GAS LISTING C:\Users\ANDRLU~1\AppData\Local\Temp\ccowugmU.s 			page 7


 352 00b6 83F9      		bld r24,3
 353 00b8 8460      		ori r24,lo8(1<<2)
 354 00ba 838F      		std Z+27,r24
 355 00bc 20E0      		ldi r18,0
 356 00be 30E0      		ldi r19,0
 357 00c0 81E0      		ldi r24,lo8(1)
 358 00c2 00C0      		rjmp .L14
 359               	.L15:
 360 00c4 24ED      		ldi r18,lo8(-44)
 361 00c6 30E0      		ldi r19,0
 362 00c8 80E0      		ldi r24,0
 363               	.L14:
 364 00ca 358F      		std Z+29,r19
 365 00cc 248F      		std Z+28,r18
 366               	/* epilogue start */
 367 00ce DF91      		pop r29
 368 00d0 CF91      		pop r28
 369 00d2 0F91      		pop r16
 370 00d4 0895      		ret
 371               	.L16:
 372 00d6 25ED      		ldi r18,lo8(-43)
 373 00d8 30E0      		ldi r19,0
 374 00da 80E0      		ldi r24,0
 375 00dc 00C0      		rjmp .L14
 376               	.L17:
 377 00de 26ED      		ldi r18,lo8(-42)
 378 00e0 30E0      		ldi r19,0
 379 00e2 80E0      		ldi r24,0
 380 00e4 00C0      		rjmp .L14
 382               		.section	.text._ZN23SevenSegmentsMuxDisplay13showNextDigitEv,"ax",@progbits
 383               	.global	_ZN23SevenSegmentsMuxDisplay13showNextDigitEv
 385               	_ZN23SevenSegmentsMuxDisplay13showNextDigitEv:
 386 0000 EF92      		push r14
 387 0002 FF92      		push r15
 388 0004 1F93      		push r17
 389 0006 CF93      		push r28
 390 0008 DF93      		push r29
 391               	/* prologue: function */
 392               	/* frame size = 0 */
 393               	/* stack size = 5 */
 394               	.L__stack_usage = 5
 395 000a C82F      		mov r28,r24
 396 000c D92F      		mov r29,r25
 397 000e 1B8D      		ldd r17,Y+27
 398 0010 1695      		lsr r17
 399 0012 1170      		andi r17,1
 400 0014 84E0      		ldi r24,lo8(4)
 401 0016 90E0      		ldi r25,0
 402 0018 1123      		tst r17
 403 001a 01F4      		brne .+2
 404 001c 00C0      		rjmp .L19
 405 001e 8B8D      		ldd r24,Y+27
 406 0020 8170      		andi r24,lo8(1)
 407 0022 8150      		subi r24,lo8(-(-1))
 408 0024 EA81      		ldd r30,Y+2
 409 0026 FB81      		ldd r31,Y+3
 410 0028 8083      		st Z,r24
GAS LISTING C:\Users\ANDRLU~1\AppData\Local\Temp\ccowugmU.s 			page 8


 411 002a 8B8D      		ldd r24,Y+27
 412 002c 83FF      		sbrs r24,3
 413 002e 00C0      		rjmp .L20
 414 0030 EE81      		ldd r30,Y+6
 415 0032 FF81      		ldd r31,Y+7
 416 0034 2081      		ld r18,Z
 417 0036 8985      		ldd r24,Y+9
 418 0038 9885      		ldd r25,Y+8
 419 003a 9770      		andi r25,lo8(7)
 420 003c 00C0      		rjmp 2f
 421               		1:
 422 003e 880F      		lsl r24
 423               		2:
 424 0040 9A95      		dec r25
 425 0042 02F4      		brpl 1b
 426 0044 8095      		com r24
 427 0046 8223      		and r24,r18
 428 0048 8083      		st Z,r24
 429               	.L21:
 430 004a 8A85      		ldd r24,Y+10
 431 004c E82F      		mov r30,r24
 432 004e E695      		lsr r30
 433 0050 E695      		lsr r30
 434 0052 E695      		lsr r30
 435 0054 E770      		andi r30,lo8(7)
 436 0056 8770      		andi r24,lo8(7)
 437 0058 E817      		cp r30,r24
 438 005a 01F4      		brne .+2
 439 005c 00C0      		rjmp .L26
 440 005e EF5F      		subi r30,lo8(-(1))
 441 0060 E770      		andi r30,lo8(7)
 442               	.L22:
 443 0062 8E2F      		mov r24,r30
 444 0064 8770      		andi r24,lo8(7)
 445 0066 880F      		lsl r24
 446 0068 880F      		lsl r24
 447 006a 880F      		lsl r24
 448 006c 9A85      		ldd r25,Y+10
 449 006e 977C      		andi r25,lo8(-57)
 450 0070 892B      		or r24,r25
 451 0072 8A87      		std Y+10,r24
 452 0074 EA80      		ldd r14,Y+2
 453 0076 FB80      		ldd r15,Y+3
 454 0078 4B8D      		ldd r20,Y+27
 455 007a 4170      		andi r20,1
 456 007c EC0F      		add r30,r28
 457 007e FD2F      		mov r31,r29
 458 0080 F11D      		adc r31,__zero_reg__
 459 0082 6389      		ldd r22,Z+19
 460 0084 8385      		ldd r24,Z+11
 461 0086 0E94 0000 		call _Z22convertToSevenSegmentshb24SevenSegmentsDisplayType
 462 008a F701      		movw r30,r14
 463 008c 8083      		st Z,r24
 464 008e 8B8D      		ldd r24,Y+27
 465 0090 83FF      		sbrs r24,3
 466 0092 00C0      		rjmp .L23
 467 0094 EE81      		ldd r30,Y+6
GAS LISTING C:\Users\ANDRLU~1\AppData\Local\Temp\ccowugmU.s 			page 9


 468 0096 FF81      		ldd r31,Y+7
 469 0098 2081      		ld r18,Z
 470 009a 8885      		ldd r24,Y+8
 471 009c 8770      		andi r24,lo8(7)
 472 009e 9A85      		ldd r25,Y+10
 473 00a0 9695      		lsr r25
 474 00a2 9695      		lsr r25
 475 00a4 9695      		lsr r25
 476 00a6 9770      		andi r25,lo8(7)
 477 00a8 890F      		add r24,r25
 478 00aa 9927      		clr r25
 479 00ac 991F      		rol r25
 480 00ae 41E0      		ldi r20,lo8(1)
 481 00b0 50E0      		ldi r21,0
 482 00b2 BA01      		movw r22,r20
 483 00b4 00C0      		rjmp 2f
 484               		1:
 485 00b6 660F      		lsl r22
 486 00b8 771F      		rol r23
 487               		2:
 488 00ba 8A95      		dec r24
 489 00bc 02F4      		brpl 1b
 490 00be CB01      		movw r24,r22
 491 00c0 822B      		or r24,r18
 492 00c2 8083      		st Z,r24
 493               	.L24:
 494 00c4 80E0      		ldi r24,0
 495 00c6 90E0      		ldi r25,0
 496               	.L19:
 497 00c8 9D8F      		std Y+29,r25
 498 00ca 8C8F      		std Y+28,r24
 499 00cc 812F      		mov r24,r17
 500               	/* epilogue start */
 501 00ce DF91      		pop r29
 502 00d0 CF91      		pop r28
 503 00d2 1F91      		pop r17
 504 00d4 FF90      		pop r15
 505 00d6 EF90      		pop r14
 506 00d8 0895      		ret
 507               	.L20:
 508 00da EE81      		ldd r30,Y+6
 509 00dc FF81      		ldd r31,Y+7
 510 00de 2081      		ld r18,Z
 511 00e0 8985      		ldd r24,Y+9
 512 00e2 9885      		ldd r25,Y+8
 513 00e4 9770      		andi r25,lo8(7)
 514 00e6 00C0      		rjmp 2f
 515               		1:
 516 00e8 880F      		lsl r24
 517               		2:
 518 00ea 9A95      		dec r25
 519 00ec 02F4      		brpl 1b
 520 00ee 822B      		or r24,r18
 521 00f0 8083      		st Z,r24
 522 00f2 00C0      		rjmp .L21
 523               	.L26:
 524 00f4 E0E0      		ldi r30,0
GAS LISTING C:\Users\ANDRLU~1\AppData\Local\Temp\ccowugmU.s 			page 10


 525 00f6 00C0      		rjmp .L22
 526               	.L23:
 527 00f8 EE81      		ldd r30,Y+6
 528 00fa FF81      		ldd r31,Y+7
 529 00fc 4081      		ld r20,Z
 530 00fe 2885      		ldd r18,Y+8
 531 0100 2770      		andi r18,lo8(7)
 532 0102 8A85      		ldd r24,Y+10
 533 0104 8695      		lsr r24
 534 0106 8695      		lsr r24
 535 0108 8695      		lsr r24
 536 010a 8770      		andi r24,lo8(7)
 537 010c 280F      		add r18,r24
 538 010e 3327      		clr r19
 539 0110 331F      		rol r19
 540 0112 81E0      		ldi r24,lo8(1)
 541 0114 90E0      		ldi r25,0
 542 0116 00C0      		rjmp 2f
 543               		1:
 544 0118 880F      		lsl r24
 545 011a 991F      		rol r25
 546               		2:
 547 011c 2A95      		dec r18
 548 011e 02F4      		brpl 1b
 549 0120 8095      		com r24
 550 0122 8423      		and r24,r20
 551 0124 8083      		st Z,r24
 552 0126 00C0      		rjmp .L24
 554               		.section	.text._ZN23SevenSegmentsMuxDisplay17updateDigitValuesEPKhPKb,"ax",@progbits
 555               	.global	_ZN23SevenSegmentsMuxDisplay17updateDigitValuesEPKhPKb
 557               	_ZN23SevenSegmentsMuxDisplay17updateDigitValuesEPKhPKb:
 558 0000 EF92      		push r14
 559 0002 FF92      		push r15
 560 0004 0F93      		push r16
 561 0006 1F93      		push r17
 562 0008 CF93      		push r28
 563 000a DF93      		push r29
 564               	/* prologue: function */
 565               	/* frame size = 0 */
 566               	/* stack size = 6 */
 567               	.L__stack_usage = 6
 568 000c C82F      		mov r28,r24
 569 000e D92F      		mov r29,r25
 570 0010 A62F      		mov r26,r22
 571 0012 B72F      		mov r27,r23
 572 0014 642F      		mov r22,r20
 573 0016 752F      		mov r23,r21
 574 0018 1097      		sbiw r26,0
 575 001a 01F0      		breq .L31
 576 001c 0A85      		ldd r16,Y+10
 577 001e 0770      		andi r16,lo8(7)
 578 0020 10E0      		ldi r17,0
 579 0022 7D01      		movw r14,r26
 580 0024 E42F      		mov r30,r20
 581 0026 F52F      		mov r31,r21
 582 0028 80E0      		ldi r24,0
 583 002a 90E0      		ldi r25,0
GAS LISTING C:\Users\ANDRLU~1\AppData\Local\Temp\ccowugmU.s 			page 11


 584 002c 51E0      		ldi r21,lo8(1)
 585 002e 541B      		sub r21,r20
 586 0030 00C0      		rjmp .L30
 587               	.L29:
 588 0032 852F      		mov r24,r21
 589 0034 8E0F      		add r24,r30
 590 0036 90E0      		ldi r25,0
 591 0038 3196      		adiw r30,1
 592 003a 0817      		cp r16,r24
 593 003c 1907      		cpc r17,r25
 594 003e 04F0      		brlt .L33
 595               	.L30:
 596 0040 D701      		movw r26,r14
 597 0042 4D91      		ld r20,X+
 598 0044 7D01      		movw r14,r26
 599 0046 9E01      		movw r18,r28
 600 0048 280F      		add r18,r24
 601 004a 391F      		adc r19,r25
 602 004c D901      		movw r26,r18
 603 004e 1B96      		adiw r26,11
 604 0050 4C93      		st X,r20
 605 0052 1B97      		sbiw r26,11
 606 0054 6115      		cp r22,__zero_reg__
 607 0056 7105      		cpc r23,__zero_reg__
 608 0058 01F0      		breq .L29
 609 005a 2081      		ld r18,Z
 610 005c 5396      		adiw r26,19
 611 005e 2C93      		st X,r18
 612 0060 00C0      		rjmp .L29
 613               	.L33:
 614 0062 20E0      		ldi r18,0
 615 0064 30E0      		ldi r19,0
 616 0066 81E0      		ldi r24,lo8(1)
 617               	.L28:
 618 0068 3D8F      		std Y+29,r19
 619 006a 2C8F      		std Y+28,r18
 620               	/* epilogue start */
 621 006c DF91      		pop r29
 622 006e CF91      		pop r28
 623 0070 1F91      		pop r17
 624 0072 0F91      		pop r16
 625 0074 FF90      		pop r15
 626 0076 EF90      		pop r14
 627 0078 0895      		ret
 628               	.L31:
 629 007a 21E1      		ldi r18,lo8(17)
 630 007c 30E0      		ldi r19,0
 631 007e 80E0      		ldi r24,0
 632 0080 00C0      		rjmp .L28
 634               		.section	.rodata._ZL31constSevenSegmentMuxDisplayMask,"a"
 637               	_ZL31constSevenSegmentMuxDisplayMask:
 638 0000 00        		.string	""
 639 0001 0307 0F1F 		.ascii	"\003\007\017\037?\177\377"
 639      3F7F FF
 640               		.ident	"GCC: (GNU) 12.1.0"
 641               	.global __do_copy_data
GAS LISTING C:\Users\ANDRLU~1\AppData\Local\Temp\ccowugmU.s 			page 12


DEFINED SYMBOLS
                            *ABS*:0000000000000000 sevenSegmentsMuxDisplay.cpp
C:\Users\ANDRLU~1\AppData\Local\Temp\ccowugmU.s:2      *ABS*:000000000000003e __SP_H__
C:\Users\ANDRLU~1\AppData\Local\Temp\ccowugmU.s:3      *ABS*:000000000000003d __SP_L__
C:\Users\ANDRLU~1\AppData\Local\Temp\ccowugmU.s:4      *ABS*:000000000000003f __SREG__
C:\Users\ANDRLU~1\AppData\Local\Temp\ccowugmU.s:5      *ABS*:0000000000000000 __tmp_reg__
C:\Users\ANDRLU~1\AppData\Local\Temp\ccowugmU.s:6      *ABS*:0000000000000001 __zero_reg__
C:\Users\ANDRLU~1\AppData\Local\Temp\ccowugmU.s:11     .text._Z7getTickv:0000000000000000 _Z7getTickv
C:\Users\ANDRLU~1\AppData\Local\Temp\ccowugmU.s:25     .text._ZN23SevenSegmentsMuxDisplayC2Ev:0000000000000000 _ZN23SevenSegmentsMuxDisplayC2Ev
C:\Users\ANDRLU~1\AppData\Local\Temp\ccowugmU.s:25     .text._ZN23SevenSegmentsMuxDisplayC2Ev:0000000000000000 _ZN23SevenSegmentsMuxDisplayC1Ev
C:\Users\ANDRLU~1\AppData\Local\Temp\ccowugmU.s:96     .text._ZN23SevenSegmentsMuxDisplayD2Ev:0000000000000000 _ZN23SevenSegmentsMuxDisplayD2Ev
C:\Users\ANDRLU~1\AppData\Local\Temp\ccowugmU.s:96     .text._ZN23SevenSegmentsMuxDisplayD2Ev:0000000000000000 _ZN23SevenSegmentsMuxDisplayD1Ev
C:\Users\ANDRLU~1\AppData\Local\Temp\ccowugmU.s:109    .text._ZN23SevenSegmentsMuxDisplay4initENS_6DigitsE24SevenSegmentsDisplayType:0000000000000000 _ZN23SevenSegmentsMuxDisplay4initENS_6DigitsE24SevenSegmentsDisplayType
C:\Users\ANDRLU~1\AppData\Local\Temp\ccowugmU.s:133    .text._ZN23SevenSegmentsMuxDisplay4initENS_6DigitsE24SevenSegmentsDisplayType:0000000000000028 L0
C:\Users\ANDRLU~1\AppData\Local\Temp\ccowugmU.s:138    .text._ZN23SevenSegmentsMuxDisplay4initENS_6DigitsE24SevenSegmentsDisplayType:0000000000000032 L0
C:\Users\ANDRLU~1\AppData\Local\Temp\ccowugmU.s:149    .text._ZN23SevenSegmentsMuxDisplay4initENS_6DigitsE24SevenSegmentsDisplayType:0000000000000048 L0
C:\Users\ANDRLU~1\AppData\Local\Temp\ccowugmU.s:637    .rodata._ZL31constSevenSegmentMuxDisplayMask:0000000000000000 _ZL31constSevenSegmentMuxDisplayMask
C:\Users\ANDRLU~1\AppData\Local\Temp\ccowugmU.s:258    .text._ZN23SevenSegmentsMuxDisplay8setPortsEPVhS1_h10LogicLevel:0000000000000000 _ZN23SevenSegmentsMuxDisplay8setPortsEPVhS1_h10LogicLevel
C:\Users\ANDRLU~1\AppData\Local\Temp\ccowugmU.s:295    .text._ZN23SevenSegmentsMuxDisplay8setPortsEPVhS1_h10LogicLevel:0000000000000042 L0
C:\Users\ANDRLU~1\AppData\Local\Temp\ccowugmU.s:302    .text._ZN23SevenSegmentsMuxDisplay8setPortsEPVhS1_h10LogicLevel:0000000000000050 L0
C:\Users\ANDRLU~1\AppData\Local\Temp\ccowugmU.s:305    .text._ZN23SevenSegmentsMuxDisplay8setPortsEPVhS1_h10LogicLevel:0000000000000056 L0
C:\Users\ANDRLU~1\AppData\Local\Temp\ccowugmU.s:385    .text._ZN23SevenSegmentsMuxDisplay13showNextDigitEv:0000000000000000 _ZN23SevenSegmentsMuxDisplay13showNextDigitEv
C:\Users\ANDRLU~1\AppData\Local\Temp\ccowugmU.s:403    .text._ZN23SevenSegmentsMuxDisplay13showNextDigitEv:000000000000001c L0
C:\Users\ANDRLU~1\AppData\Local\Temp\ccowugmU.s:438    .text._ZN23SevenSegmentsMuxDisplay13showNextDigitEv:000000000000005c L0
C:\Users\ANDRLU~1\AppData\Local\Temp\ccowugmU.s:557    .text._ZN23SevenSegmentsMuxDisplay17updateDigitValuesEPKhPKb:0000000000000000 _ZN23SevenSegmentsMuxDisplay17updateDigitValuesEPKhPKb
C:\Users\ANDRLU~1\AppData\Local\Temp\ccowugmU.s:70     .text._ZN23SevenSegmentsMuxDisplayC2Ev:0000000000000050 .L3
C:\Users\ANDRLU~1\AppData\Local\Temp\ccowugmU.s:232    .text._ZN23SevenSegmentsMuxDisplay4initENS_6DigitsE24SevenSegmentsDisplayType:00000000000000dc .L10
C:\Users\ANDRLU~1\AppData\Local\Temp\ccowugmU.s:244    .text._ZN23SevenSegmentsMuxDisplay4initENS_6DigitsE24SevenSegmentsDisplayType:00000000000000ee .L11
C:\Users\ANDRLU~1\AppData\Local\Temp\ccowugmU.s:249    .text._ZN23SevenSegmentsMuxDisplay4initENS_6DigitsE24SevenSegmentsDisplayType:00000000000000f6 .L12
C:\Users\ANDRLU~1\AppData\Local\Temp\ccowugmU.s:170    .text._ZN23SevenSegmentsMuxDisplay4initENS_6DigitsE24SevenSegmentsDisplayType:000000000000006e .L21
C:\Users\ANDRLU~1\AppData\Local\Temp\ccowugmU.s:167    .text._ZN23SevenSegmentsMuxDisplay4initENS_6DigitsE24SevenSegmentsDisplayType:000000000000006a .L11
C:\Users\ANDRLU~1\AppData\Local\Temp\ccowugmU.s:216    .text._ZN23SevenSegmentsMuxDisplay4initENS_6DigitsE24SevenSegmentsDisplayType:00000000000000c2 .L8
C:\Users\ANDRLU~1\AppData\Local\Temp\ccowugmU.s:192    .text._ZN23SevenSegmentsMuxDisplay4initENS_6DigitsE24SevenSegmentsDisplayType:0000000000000096 .L22
C:\Users\ANDRLU~1\AppData\Local\Temp\ccowugmU.s:189    .text._ZN23SevenSegmentsMuxDisplay4initENS_6DigitsE24SevenSegmentsDisplayType:0000000000000092 .L12
C:\Users\ANDRLU~1\AppData\Local\Temp\ccowugmU.s:235    .text._ZN23SevenSegmentsMuxDisplay4initENS_6DigitsE24SevenSegmentsDisplayType:00000000000000e0 .L7
C:\Users\ANDRLU~1\AppData\Local\Temp\ccowugmU.s:226    .text._ZN23SevenSegmentsMuxDisplay4initENS_6DigitsE24SevenSegmentsDisplayType:00000000000000d2 .L23
C:\Users\ANDRLU~1\AppData\Local\Temp\ccowugmU.s:223    .text._ZN23SevenSegmentsMuxDisplay4initENS_6DigitsE24SevenSegmentsDisplayType:00000000000000ce .L13
C:\Users\ANDRLU~1\AppData\Local\Temp\ccowugmU.s:198    .text._ZN23SevenSegmentsMuxDisplay4initENS_6DigitsE24SevenSegmentsDisplayType:00000000000000a0 .L9
C:\Users\ANDRLU~1\AppData\Local\Temp\ccowugmU.s:359    .text._ZN23SevenSegmentsMuxDisplay8setPortsEPVhS1_h10LogicLevel:00000000000000c4 .L15
C:\Users\ANDRLU~1\AppData\Local\Temp\ccowugmU.s:371    .text._ZN23SevenSegmentsMuxDisplay8setPortsEPVhS1_h10LogicLevel:00000000000000d6 .L16
C:\Users\ANDRLU~1\AppData\Local\Temp\ccowugmU.s:376    .text._ZN23SevenSegmentsMuxDisplay8setPortsEPVhS1_h10LogicLevel:00000000000000de .L17
C:\Users\ANDRLU~1\AppData\Local\Temp\ccowugmU.s:363    .text._ZN23SevenSegmentsMuxDisplay8setPortsEPVhS1_h10LogicLevel:00000000000000ca .L14
C:\Users\ANDRLU~1\AppData\Local\Temp\ccowugmU.s:496    .text._ZN23SevenSegmentsMuxDisplay13showNextDigitEv:00000000000000c8 .L19
C:\Users\ANDRLU~1\AppData\Local\Temp\ccowugmU.s:507    .text._ZN23SevenSegmentsMuxDisplay13showNextDigitEv:00000000000000da .L20
C:\Users\ANDRLU~1\AppData\Local\Temp\ccowugmU.s:423    .text._ZN23SevenSegmentsMuxDisplay13showNextDigitEv:0000000000000040 .L24
C:\Users\ANDRLU~1\AppData\Local\Temp\ccowugmU.s:421    .text._ZN23SevenSegmentsMuxDisplay13showNextDigitEv:000000000000003e .L14
C:\Users\ANDRLU~1\AppData\Local\Temp\ccowugmU.s:523    .text._ZN23SevenSegmentsMuxDisplay13showNextDigitEv:00000000000000f4 .L26
C:\Users\ANDRLU~1\AppData\Local\Temp\ccowugmU.s:526    .text._ZN23SevenSegmentsMuxDisplay13showNextDigitEv:00000000000000f8 .L23
C:\Users\ANDRLU~1\AppData\Local\Temp\ccowugmU.s:487    .text._ZN23SevenSegmentsMuxDisplay13showNextDigitEv:00000000000000ba .L25
C:\Users\ANDRLU~1\AppData\Local\Temp\ccowugmU.s:484    .text._ZN23SevenSegmentsMuxDisplay13showNextDigitEv:00000000000000b6 .L15
C:\Users\ANDRLU~1\AppData\Local\Temp\ccowugmU.s:517    .text._ZN23SevenSegmentsMuxDisplay13showNextDigitEv:00000000000000ea .L26
C:\Users\ANDRLU~1\AppData\Local\Temp\ccowugmU.s:515    .text._ZN23SevenSegmentsMuxDisplay13showNextDigitEv:00000000000000e8 .L16
C:\Users\ANDRLU~1\AppData\Local\Temp\ccowugmU.s:429    .text._ZN23SevenSegmentsMuxDisplay13showNextDigitEv:000000000000004a .L21
C:\Users\ANDRLU~1\AppData\Local\Temp\ccowugmU.s:442    .text._ZN23SevenSegmentsMuxDisplay13showNextDigitEv:0000000000000062 .L22
C:\Users\ANDRLU~1\AppData\Local\Temp\ccowugmU.s:546    .text._ZN23SevenSegmentsMuxDisplay13showNextDigitEv:000000000000011c .L27
C:\Users\ANDRLU~1\AppData\Local\Temp\ccowugmU.s:543    .text._ZN23SevenSegmentsMuxDisplay13showNextDigitEv:0000000000000118 .L17
C:\Users\ANDRLU~1\AppData\Local\Temp\ccowugmU.s:493    .text._ZN23SevenSegmentsMuxDisplay13showNextDigitEv:00000000000000c4 .L24
GAS LISTING C:\Users\ANDRLU~1\AppData\Local\Temp\ccowugmU.s 			page 13


C:\Users\ANDRLU~1\AppData\Local\Temp\ccowugmU.s:628    .text._ZN23SevenSegmentsMuxDisplay17updateDigitValuesEPKhPKb:000000000000007a .L31
C:\Users\ANDRLU~1\AppData\Local\Temp\ccowugmU.s:595    .text._ZN23SevenSegmentsMuxDisplay17updateDigitValuesEPKhPKb:0000000000000040 .L30
C:\Users\ANDRLU~1\AppData\Local\Temp\ccowugmU.s:613    .text._ZN23SevenSegmentsMuxDisplay17updateDigitValuesEPKhPKb:0000000000000062 .L33
C:\Users\ANDRLU~1\AppData\Local\Temp\ccowugmU.s:587    .text._ZN23SevenSegmentsMuxDisplay17updateDigitValuesEPKhPKb:0000000000000032 .L29
C:\Users\ANDRLU~1\AppData\Local\Temp\ccowugmU.s:617    .text._ZN23SevenSegmentsMuxDisplay17updateDigitValuesEPKhPKb:0000000000000068 .L28

UNDEFINED SYMBOLS
__umulhisi3
_Z22convertToSevenSegmentshb24SevenSegmentsDisplayType
__do_copy_data
